

Microchip MPLAB XC8 Assembler V2.05 build -831301201 
                                                                                               Sat Apr 13 12:03:25 2019

Microchip MPLAB XC8 C Compiler v2.05 (Free license) build 20181220022703 Og1 
     1                           	processor	16F18446
     2                           	opt	pw 120
     3                           	opt	flic
     4                           	psect	stringtext1,global,class=STRCODE,delta=2
     5                           	psect	stringtext2,global,class=STRCODE,delta=2
     6                           	psect	stringtext3,global,class=STRCODE,delta=2
     7                           	psect	stringtext4,global,class=STRCODE,delta=2
     8                           	psect	stringtext5,global,class=STRCODE,delta=2
     9                           	psect	stringtext6,global,class=STRCODE,delta=2
    10                           	psect	stringtext7,global,class=STRCODE,delta=2
    11                           	psect	stringtext8,global,class=STRCODE,delta=2
    12                           	psect	stringtext9,global,class=STRCODE,delta=2
    13                           	psect	stringtext10,global,class=STRCODE,delta=2
    14                           	psect	cinit,global,class=CODE,merge=1,delta=2
    15                           	psect	bssCOMMON,global,class=COMMON,space=1,delta=1
    16                           	psect	bssBANK0,global,class=BANK0,space=1,delta=1
    17                           	psect	clrtext,global,class=CODE,delta=2
    18                           	psect	cstackBANK1,global,class=BANK1,space=1,delta=1
    19                           	psect	cstackCOMMON,global,class=COMMON,space=1,delta=1
    20                           	psect	cstackBANK0,global,class=BANK0,space=1,delta=1
    21                           	psect	maintext,global,class=CODE,merge=1,split=1,delta=2
    22                           	psect	text1,local,class=CODE,merge=1,delta=2
    23                           	psect	text2,local,class=CODE,merge=1,delta=2
    24                           	psect	text3,local,class=CODE,merge=1,delta=2
    25                           	psect	text4,local,class=CODE,merge=1,delta=2
    26                           	psect	text5,local,class=CODE,merge=1,delta=2
    27                           	psect	text6,local,class=CODE,merge=1,delta=2
    28                           	psect	text7,local,class=CODE,merge=1,delta=2
    29                           	psect	text8,local,class=CODE,merge=1,delta=2
    30                           	psect	text9,local,class=CODE,merge=1,inline,delta=2
    31                           	psect	intentry,global,class=CODE,delta=2
    32                           	psect	text11,local,class=CODE,merge=1,delta=2
    33                           	psect	text12,local,class=CODE,merge=1,delta=2
    34                           	psect	text13,local,class=CODE,merge=1,delta=2
    35                           	psect	text14,local,class=CODE,merge=1,delta=2
    36                           	dabs	1,0x7E,2
    37  0000                     
    38                           ; Version 2.05
    39                           ; Generated 20/12/2018 GMT
    40                           ; 
    41                           ; Copyright © 2018, Microchip Technology Inc. and its subsidiaries ("Microchip")
    42                           ; All rights reserved.
    43                           ; 
    44                           ; This software is developed by Microchip Technology Inc. and its subsidiaries ("Microch
      +                          ip").
    45                           ; 
    46                           ; Redistribution and use in source and binary forms, with or without modification, are
    47                           ; permitted provided that the following conditions are met:
    48                           ; 
    49                           ;     1. Redistributions of source code must retain the above copyright notice, this lis
      +                          t of
    50                           ;        conditions and the following disclaimer.
    51                           ; 
    52                           ;     2. Redistributions in binary form must reproduce the above copyright notice, this 
      +                          list
    53                           ;        of conditions and the following disclaimer in the documentation and/or other
    54                           ;        materials provided with the distribution.
    55                           ; 
    56                           ;     3. Microchip's name may not be used to endorse or promote products derived from th
      +                          is
    57                           ;        software without specific prior written permission.
    58                           ; 
    59                           ; THIS SOFTWARE IS PROVIDED BY MICROCHIP "AS IS" AND ANY EXPRESS OR IMPLIED WARRANTIES,
    60                           ; INCLUDING, BUT NOT LIMITED TO, THE IMPLIED WARRANTIES OF MERCHANTABILITY AND FITNESS F
      +                          OR
    61                           ; PURPOSE ARE DISCLAIMED.  IN NO EVENT SHALL MICROCHIP BE LIABLE FOR ANY DIRECT, INDIREC
      +                          T,
    62                           ; INCIDENTAL, SPECIAL, EXEMPLARY, OR CONSEQUENTIAL DAMAGES (INCLUDING BUT NOT LIMITED TO
    63                           ; PROCUREMENT OF SUBSTITUTE GOODS OR SERVICES; LOSS OF USE, DATA OR PROFITS; OR BUSINESS
    64                           ; INTERRUPTION) HOWSOEVER CAUSED AND ON ANY THEORY OF LIABILITY, WHETHER IN CONTRACT, ST
      +                          RICT
    65                           ; LIABILITY, OR TORT (INCLUDING NEGLIGENCE OR OTHERWISE) ARISING IN ANY WAY OUT OF THE U
      +                          SE OF
    66                           ; THIS SOFTWARE, EVEN IF ADVISED OF THE POSSIBILITY OF SUCH DAMAGE.
    67                           ; 
    68                           ; 
    69                           ; Code-generator required, PIC16F18446 Definitions
    70                           ; 
    71                           ; SFR Addresses
    72  0000                     	;# 
    73  0001                     	;# 
    74  0002                     	;# 
    75  0003                     	;# 
    76  0004                     	;# 
    77  0005                     	;# 
    78  0006                     	;# 
    79  0007                     	;# 
    80  0008                     	;# 
    81  0009                     	;# 
    82  000A                     	;# 
    83  000B                     	;# 
    84  000C                     	;# 
    85  000D                     	;# 
    86  000E                     	;# 
    87  0012                     	;# 
    88  0013                     	;# 
    89  0014                     	;# 
    90  0018                     	;# 
    91  0019                     	;# 
    92  001A                     	;# 
    93  008C                     	;# 
    94  008C                     	;# 
    95  008D                     	;# 
    96  008E                     	;# 
    97  008E                     	;# 
    98  008F                     	;# 
    99  0090                     	;# 
   100  0090                     	;# 
   101  0091                     	;# 
   102  0092                     	;# 
   103  0092                     	;# 
   104  0093                     	;# 
   105  0094                     	;# 
   106  0094                     	;# 
   107  0095                     	;# 
   108  0096                     	;# 
   109  0096                     	;# 
   110  0097                     	;# 
   111  0098                     	;# 
   112  0099                     	;# 
   113  009A                     	;# 
   114  009B                     	;# 
   115  009B                     	;# 
   116  009C                     	;# 
   117  009D                     	;# 
   118  009D                     	;# 
   119  009E                     	;# 
   120  009F                     	;# 
   121  010C                     	;# 
   122  010C                     	;# 
   123  010D                     	;# 
   124  010E                     	;# 
   125  010F                     	;# 
   126  010F                     	;# 
   127  0110                     	;# 
   128  0111                     	;# 
   129  0112                     	;# 
   130  0113                     	;# 
   131  0114                     	;# 
   132  0115                     	;# 
   133  0116                     	;# 
   134  0117                     	;# 
   135  0118                     	;# 
   136  0119                     	;# 
   137  0119                     	;# 
   138  0119                     	;# 
   139  011A                     	;# 
   140  011A                     	;# 
   141  011A                     	;# 
   142  011B                     	;# 
   143  011B                     	;# 
   144  011B                     	;# 
   145  011B                     	;# 
   146  011B                     	;# 
   147  011C                     	;# 
   148  011C                     	;# 
   149  011C                     	;# 
   150  011D                     	;# 
   151  011D                     	;# 
   152  011D                     	;# 
   153  011E                     	;# 
   154  011E                     	;# 
   155  011E                     	;# 
   156  011F                     	;# 
   157  011F                     	;# 
   158  011F                     	;# 
   159  011F                     	;# 
   160  011F                     	;# 
   161  018C                     	;# 
   162  018D                     	;# 
   163  018E                     	;# 
   164  018F                     	;# 
   165  0190                     	;# 
   166  0191                     	;# 
   167  0192                     	;# 
   168  0196                     	;# 
   169  0197                     	;# 
   170  0198                     	;# 
   171  0199                     	;# 
   172  019A                     	;# 
   173  019B                     	;# 
   174  019C                     	;# 
   175  020C                     	;# 
   176  020D                     	;# 
   177  020E                     	;# 
   178  020E                     	;# 
   179  020F                     	;# 
   180  020F                     	;# 
   181  0210                     	;# 
   182  0210                     	;# 
   183  0211                     	;# 
   184  0211                     	;# 
   185  0212                     	;# 
   186  0213                     	;# 
   187  0214                     	;# 
   188  0214                     	;# 
   189  0215                     	;# 
   190  0215                     	;# 
   191  0216                     	;# 
   192  0216                     	;# 
   193  0217                     	;# 
   194  0217                     	;# 
   195  0218                     	;# 
   196  0219                     	;# 
   197  021A                     	;# 
   198  021A                     	;# 
   199  021B                     	;# 
   200  021B                     	;# 
   201  021C                     	;# 
   202  021C                     	;# 
   203  021D                     	;# 
   204  021D                     	;# 
   205  021E                     	;# 
   206  021F                     	;# 
   207  028C                     	;# 
   208  028C                     	;# 
   209  028D                     	;# 
   210  028D                     	;# 
   211  028E                     	;# 
   212  028F                     	;# 
   213  0290                     	;# 
   214  0291                     	;# 
   215  0292                     	;# 
   216  0292                     	;# 
   217  0293                     	;# 
   218  0293                     	;# 
   219  0294                     	;# 
   220  0295                     	;# 
   221  0296                     	;# 
   222  0297                     	;# 
   223  0298                     	;# 
   224  0298                     	;# 
   225  0299                     	;# 
   226  0299                     	;# 
   227  029A                     	;# 
   228  029B                     	;# 
   229  029C                     	;# 
   230  029D                     	;# 
   231  029F                     	;# 
   232  030C                     	;# 
   233  030C                     	;# 
   234  030D                     	;# 
   235  030E                     	;# 
   236  030F                     	;# 
   237  0310                     	;# 
   238  0310                     	;# 
   239  0311                     	;# 
   240  0312                     	;# 
   241  0313                     	;# 
   242  0314                     	;# 
   243  0314                     	;# 
   244  0315                     	;# 
   245  0316                     	;# 
   246  0317                     	;# 
   247  0318                     	;# 
   248  0318                     	;# 
   249  0319                     	;# 
   250  031A                     	;# 
   251  031B                     	;# 
   252  038C                     	;# 
   253  038C                     	;# 
   254  038D                     	;# 
   255  038E                     	;# 
   256  0390                     	;# 
   257  0390                     	;# 
   258  0391                     	;# 
   259  0392                     	;# 
   260  048C                     	;# 
   261  048C                     	;# 
   262  048D                     	;# 
   263  048E                     	;# 
   264  048F                     	;# 
   265  048F                     	;# 
   266  0490                     	;# 
   267  0491                     	;# 
   268  0492                     	;# 
   269  0492                     	;# 
   270  0493                     	;# 
   271  0494                     	;# 
   272  0495                     	;# 
   273  0495                     	;# 
   274  0496                     	;# 
   275  0497                     	;# 
   276  0498                     	;# 
   277  0499                     	;# 
   278  049A                     	;# 
   279  049B                     	;# 
   280  049C                     	;# 
   281  049D                     	;# 
   282  058C                     	;# 
   283  058C                     	;# 
   284  058D                     	;# 
   285  058E                     	;# 
   286  058F                     	;# 
   287  058F                     	;# 
   288  0590                     	;# 
   289  0591                     	;# 
   290  0592                     	;# 
   291  0593                     	;# 
   292  059C                     	;# 
   293  059C                     	;# 
   294  059D                     	;# 
   295  059D                     	;# 
   296  059E                     	;# 
   297  059F                     	;# 
   298  060C                     	;# 
   299  060C                     	;# 
   300  060D                     	;# 
   301  060D                     	;# 
   302  060E                     	;# 
   303  060F                     	;# 
   304  0610                     	;# 
   305  0611                     	;# 
   306  0612                     	;# 
   307  0613                     	;# 
   308  0614                     	;# 
   309  0616                     	;# 
   310  0616                     	;# 
   311  0617                     	;# 
   312  0617                     	;# 
   313  0618                     	;# 
   314  0619                     	;# 
   315  061A                     	;# 
   316  061B                     	;# 
   317  061C                     	;# 
   318  061D                     	;# 
   319  061E                     	;# 
   320  070C                     	;# 
   321  070D                     	;# 
   322  070E                     	;# 
   323  070F                     	;# 
   324  0710                     	;# 
   325  0711                     	;# 
   326  0712                     	;# 
   327  0713                     	;# 
   328  0714                     	;# 
   329  0716                     	;# 
   330  0717                     	;# 
   331  0718                     	;# 
   332  0719                     	;# 
   333  071A                     	;# 
   334  071B                     	;# 
   335  071C                     	;# 
   336  071D                     	;# 
   337  071E                     	;# 
   338  0796                     	;# 
   339  0797                     	;# 
   340  0798                     	;# 
   341  0799                     	;# 
   342  079A                     	;# 
   343  079B                     	;# 
   344  079C                     	;# 
   345  079D                     	;# 
   346  080C                     	;# 
   347  080D                     	;# 
   348  080E                     	;# 
   349  080F                     	;# 
   350  0810                     	;# 
   351  0811                     	;# 
   352  0812                     	;# 
   353  0813                     	;# 
   354  0814                     	;# 
   355  081A                     	;# 
   356  081A                     	;# 
   357  081B                     	;# 
   358  081C                     	;# 
   359  081C                     	;# 
   360  081D                     	;# 
   361  081E                     	;# 
   362  081F                     	;# 
   363  088C                     	;# 
   364  088D                     	;# 
   365  088E                     	;# 
   366  088F                     	;# 
   367  0890                     	;# 
   368  0891                     	;# 
   369  0892                     	;# 
   370  0893                     	;# 
   371  0895                     	;# 
   372  0896                     	;# 
   373  0897                     	;# 
   374  0898                     	;# 
   375  0899                     	;# 
   376  089A                     	;# 
   377  089B                     	;# 
   378  090C                     	;# 
   379  090E                     	;# 
   380  090F                     	;# 
   381  091F                     	;# 
   382  098F                     	;# 
   383  098F                     	;# 
   384  0990                     	;# 
   385  0991                     	;# 
   386  0992                     	;# 
   387  0993                     	;# 
   388  0994                     	;# 
   389  0995                     	;# 
   390  0996                     	;# 
   391  0997                     	;# 
   392  1E0F                     	;# 
   393  1E10                     	;# 
   394  1E11                     	;# 
   395  1E12                     	;# 
   396  1E13                     	;# 
   397  1E14                     	;# 
   398  1E15                     	;# 
   399  1E16                     	;# 
   400  1E17                     	;# 
   401  1E18                     	;# 
   402  1E19                     	;# 
   403  1E1A                     	;# 
   404  1E1B                     	;# 
   405  1E1C                     	;# 
   406  1E1D                     	;# 
   407  1E1E                     	;# 
   408  1E1F                     	;# 
   409  1E20                     	;# 
   410  1E21                     	;# 
   411  1E22                     	;# 
   412  1E23                     	;# 
   413  1E24                     	;# 
   414  1E25                     	;# 
   415  1E26                     	;# 
   416  1E27                     	;# 
   417  1E28                     	;# 
   418  1E29                     	;# 
   419  1E2A                     	;# 
   420  1E2B                     	;# 
   421  1E2C                     	;# 
   422  1E2D                     	;# 
   423  1E2E                     	;# 
   424  1E2F                     	;# 
   425  1E30                     	;# 
   426  1E31                     	;# 
   427  1E32                     	;# 
   428  1E33                     	;# 
   429  1E34                     	;# 
   430  1E35                     	;# 
   431  1E36                     	;# 
   432  1E37                     	;# 
   433  1E8F                     	;# 
   434  1E90                     	;# 
   435  1E91                     	;# 
   436  1E92                     	;# 
   437  1E93                     	;# 
   438  1E94                     	;# 
   439  1E95                     	;# 
   440  1E96                     	;# 
   441  1E97                     	;# 
   442  1E9C                     	;# 
   443  1E9D                     	;# 
   444  1E9E                     	;# 
   445  1EA1                     	;# 
   446  1EA2                     	;# 
   447  1EA3                     	;# 
   448  1EA4                     	;# 
   449  1EA9                     	;# 
   450  1EAA                     	;# 
   451  1EB1                     	;# 
   452  1EB2                     	;# 
   453  1EB8                     	;# 
   454  1EB9                     	;# 
   455  1EBA                     	;# 
   456  1EBB                     	;# 
   457  1EBC                     	;# 
   458  1EBD                     	;# 
   459  1EBE                     	;# 
   460  1EC3                     	;# 
   461  1EC5                     	;# 
   462  1EC6                     	;# 
   463  1EC7                     	;# 
   464  1EC8                     	;# 
   465  1EC9                     	;# 
   466  1ECA                     	;# 
   467  1ECB                     	;# 
   468  1ECB                     	;# 
   469  1ECB                     	;# 
   470  1ECC                     	;# 
   471  1ECC                     	;# 
   472  1ECC                     	;# 
   473  1F10                     	;# 
   474  1F11                     	;# 
   475  1F12                     	;# 
   476  1F14                     	;# 
   477  1F15                     	;# 
   478  1F1C                     	;# 
   479  1F1D                     	;# 
   480  1F1E                     	;# 
   481  1F1F                     	;# 
   482  1F20                     	;# 
   483  1F21                     	;# 
   484  1F22                     	;# 
   485  1F23                     	;# 
   486  1F24                     	;# 
   487  1F25                     	;# 
   488  1F26                     	;# 
   489  1F27                     	;# 
   490  1F38                     	;# 
   491  1F39                     	;# 
   492  1F3A                     	;# 
   493  1F3B                     	;# 
   494  1F3C                     	;# 
   495  1F3D                     	;# 
   496  1F3E                     	;# 
   497  1F3F                     	;# 
   498  1F43                     	;# 
   499  1F44                     	;# 
   500  1F45                     	;# 
   501  1F46                     	;# 
   502  1F47                     	;# 
   503  1F48                     	;# 
   504  1F49                     	;# 
   505  1F4A                     	;# 
   506  1F4E                     	;# 
   507  1F4F                     	;# 
   508  1F50                     	;# 
   509  1F51                     	;# 
   510  1F52                     	;# 
   511  1F53                     	;# 
   512  1F54                     	;# 
   513  1F55                     	;# 
   514  1FE4                     	;# 
   515  1FE5                     	;# 
   516  1FE6                     	;# 
   517  1FE7                     	;# 
   518  1FE8                     	;# 
   519  1FE8                     	;# 
   520  1FE9                     	;# 
   521  1FEA                     	;# 
   522  1FEB                     	;# 
   523  1FED                     	;# 
   524  1FEE                     	;# 
   525  1FEF                     	;# 
   526  0000                     	;# 
   527  0001                     	;# 
   528  0002                     	;# 
   529  0003                     	;# 
   530  0004                     	;# 
   531  0005                     	;# 
   532  0006                     	;# 
   533  0007                     	;# 
   534  0008                     	;# 
   535  0009                     	;# 
   536  000A                     	;# 
   537  000B                     	;# 
   538  000C                     	;# 
   539  000D                     	;# 
   540  000E                     	;# 
   541  0012                     	;# 
   542  0013                     	;# 
   543  0014                     	;# 
   544  0018                     	;# 
   545  0019                     	;# 
   546  001A                     	;# 
   547  008C                     	;# 
   548  008C                     	;# 
   549  008D                     	;# 
   550  008E                     	;# 
   551  008E                     	;# 
   552  008F                     	;# 
   553  0090                     	;# 
   554  0090                     	;# 
   555  0091                     	;# 
   556  0092                     	;# 
   557  0092                     	;# 
   558  0093                     	;# 
   559  0094                     	;# 
   560  0094                     	;# 
   561  0095                     	;# 
   562  0096                     	;# 
   563  0096                     	;# 
   564  0097                     	;# 
   565  0098                     	;# 
   566  0099                     	;# 
   567  009A                     	;# 
   568  009B                     	;# 
   569  009B                     	;# 
   570  009C                     	;# 
   571  009D                     	;# 
   572  009D                     	;# 
   573  009E                     	;# 
   574  009F                     	;# 
   575  010C                     	;# 
   576  010C                     	;# 
   577  010D                     	;# 
   578  010E                     	;# 
   579  010F                     	;# 
   580  010F                     	;# 
   581  0110                     	;# 
   582  0111                     	;# 
   583  0112                     	;# 
   584  0113                     	;# 
   585  0114                     	;# 
   586  0115                     	;# 
   587  0116                     	;# 
   588  0117                     	;# 
   589  0118                     	;# 
   590  0119                     	;# 
   591  0119                     	;# 
   592  0119                     	;# 
   593  011A                     	;# 
   594  011A                     	;# 
   595  011A                     	;# 
   596  011B                     	;# 
   597  011B                     	;# 
   598  011B                     	;# 
   599  011B                     	;# 
   600  011B                     	;# 
   601  011C                     	;# 
   602  011C                     	;# 
   603  011C                     	;# 
   604  011D                     	;# 
   605  011D                     	;# 
   606  011D                     	;# 
   607  011E                     	;# 
   608  011E                     	;# 
   609  011E                     	;# 
   610  011F                     	;# 
   611  011F                     	;# 
   612  011F                     	;# 
   613  011F                     	;# 
   614  011F                     	;# 
   615  018C                     	;# 
   616  018D                     	;# 
   617  018E                     	;# 
   618  018F                     	;# 
   619  0190                     	;# 
   620  0191                     	;# 
   621  0192                     	;# 
   622  0196                     	;# 
   623  0197                     	;# 
   624  0198                     	;# 
   625  0199                     	;# 
   626  019A                     	;# 
   627  019B                     	;# 
   628  019C                     	;# 
   629  020C                     	;# 
   630  020D                     	;# 
   631  020E                     	;# 
   632  020E                     	;# 
   633  020F                     	;# 
   634  020F                     	;# 
   635  0210                     	;# 
   636  0210                     	;# 
   637  0211                     	;# 
   638  0211                     	;# 
   639  0212                     	;# 
   640  0213                     	;# 
   641  0214                     	;# 
   642  0214                     	;# 
   643  0215                     	;# 
   644  0215                     	;# 
   645  0216                     	;# 
   646  0216                     	;# 
   647  0217                     	;# 
   648  0217                     	;# 
   649  0218                     	;# 
   650  0219                     	;# 
   651  021A                     	;# 
   652  021A                     	;# 
   653  021B                     	;# 
   654  021B                     	;# 
   655  021C                     	;# 
   656  021C                     	;# 
   657  021D                     	;# 
   658  021D                     	;# 
   659  021E                     	;# 
   660  021F                     	;# 
   661  028C                     	;# 
   662  028C                     	;# 
   663  028D                     	;# 
   664  028D                     	;# 
   665  028E                     	;# 
   666  028F                     	;# 
   667  0290                     	;# 
   668  0291                     	;# 
   669  0292                     	;# 
   670  0292                     	;# 
   671  0293                     	;# 
   672  0293                     	;# 
   673  0294                     	;# 
   674  0295                     	;# 
   675  0296                     	;# 
   676  0297                     	;# 
   677  0298                     	;# 
   678  0298                     	;# 
   679  0299                     	;# 
   680  0299                     	;# 
   681  029A                     	;# 
   682  029B                     	;# 
   683  029C                     	;# 
   684  029D                     	;# 
   685  029F                     	;# 
   686  030C                     	;# 
   687  030C                     	;# 
   688  030D                     	;# 
   689  030E                     	;# 
   690  030F                     	;# 
   691  0310                     	;# 
   692  0310                     	;# 
   693  0311                     	;# 
   694  0312                     	;# 
   695  0313                     	;# 
   696  0314                     	;# 
   697  0314                     	;# 
   698  0315                     	;# 
   699  0316                     	;# 
   700  0317                     	;# 
   701  0318                     	;# 
   702  0318                     	;# 
   703  0319                     	;# 
   704  031A                     	;# 
   705  031B                     	;# 
   706  038C                     	;# 
   707  038C                     	;# 
   708  038D                     	;# 
   709  038E                     	;# 
   710  0390                     	;# 
   711  0390                     	;# 
   712  0391                     	;# 
   713  0392                     	;# 
   714  048C                     	;# 
   715  048C                     	;# 
   716  048D                     	;# 
   717  048E                     	;# 
   718  048F                     	;# 
   719  048F                     	;# 
   720  0490                     	;# 
   721  0491                     	;# 
   722  0492                     	;# 
   723  0492                     	;# 
   724  0493                     	;# 
   725  0494                     	;# 
   726  0495                     	;# 
   727  0495                     	;# 
   728  0496                     	;# 
   729  0497                     	;# 
   730  0498                     	;# 
   731  0499                     	;# 
   732  049A                     	;# 
   733  049B                     	;# 
   734  049C                     	;# 
   735  049D                     	;# 
   736  058C                     	;# 
   737  058C                     	;# 
   738  058D                     	;# 
   739  058E                     	;# 
   740  058F                     	;# 
   741  058F                     	;# 
   742  0590                     	;# 
   743  0591                     	;# 
   744  0592                     	;# 
   745  0593                     	;# 
   746  059C                     	;# 
   747  059C                     	;# 
   748  059D                     	;# 
   749  059D                     	;# 
   750  059E                     	;# 
   751  059F                     	;# 
   752  060C                     	;# 
   753  060C                     	;# 
   754  060D                     	;# 
   755  060D                     	;# 
   756  060E                     	;# 
   757  060F                     	;# 
   758  0610                     	;# 
   759  0611                     	;# 
   760  0612                     	;# 
   761  0613                     	;# 
   762  0614                     	;# 
   763  0616                     	;# 
   764  0616                     	;# 
   765  0617                     	;# 
   766  0617                     	;# 
   767  0618                     	;# 
   768  0619                     	;# 
   769  061A                     	;# 
   770  061B                     	;# 
   771  061C                     	;# 
   772  061D                     	;# 
   773  061E                     	;# 
   774  070C                     	;# 
   775  070D                     	;# 
   776  070E                     	;# 
   777  070F                     	;# 
   778  0710                     	;# 
   779  0711                     	;# 
   780  0712                     	;# 
   781  0713                     	;# 
   782  0714                     	;# 
   783  0716                     	;# 
   784  0717                     	;# 
   785  0718                     	;# 
   786  0719                     	;# 
   787  071A                     	;# 
   788  071B                     	;# 
   789  071C                     	;# 
   790  071D                     	;# 
   791  071E                     	;# 
   792  0796                     	;# 
   793  0797                     	;# 
   794  0798                     	;# 
   795  0799                     	;# 
   796  079A                     	;# 
   797  079B                     	;# 
   798  079C                     	;# 
   799  079D                     	;# 
   800  080C                     	;# 
   801  080D                     	;# 
   802  080E                     	;# 
   803  080F                     	;# 
   804  0810                     	;# 
   805  0811                     	;# 
   806  0812                     	;# 
   807  0813                     	;# 
   808  0814                     	;# 
   809  081A                     	;# 
   810  081A                     	;# 
   811  081B                     	;# 
   812  081C                     	;# 
   813  081C                     	;# 
   814  081D                     	;# 
   815  081E                     	;# 
   816  081F                     	;# 
   817  088C                     	;# 
   818  088D                     	;# 
   819  088E                     	;# 
   820  088F                     	;# 
   821  0890                     	;# 
   822  0891                     	;# 
   823  0892                     	;# 
   824  0893                     	;# 
   825  0895                     	;# 
   826  0896                     	;# 
   827  0897                     	;# 
   828  0898                     	;# 
   829  0899                     	;# 
   830  089A                     	;# 
   831  089B                     	;# 
   832  090C                     	;# 
   833  090E                     	;# 
   834  090F                     	;# 
   835  091F                     	;# 
   836  098F                     	;# 
   837  098F                     	;# 
   838  0990                     	;# 
   839  0991                     	;# 
   840  0992                     	;# 
   841  0993                     	;# 
   842  0994                     	;# 
   843  0995                     	;# 
   844  0996                     	;# 
   845  0997                     	;# 
   846  1E0F                     	;# 
   847  1E10                     	;# 
   848  1E11                     	;# 
   849  1E12                     	;# 
   850  1E13                     	;# 
   851  1E14                     	;# 
   852  1E15                     	;# 
   853  1E16                     	;# 
   854  1E17                     	;# 
   855  1E18                     	;# 
   856  1E19                     	;# 
   857  1E1A                     	;# 
   858  1E1B                     	;# 
   859  1E1C                     	;# 
   860  1E1D                     	;# 
   861  1E1E                     	;# 
   862  1E1F                     	;# 
   863  1E20                     	;# 
   864  1E21                     	;# 
   865  1E22                     	;# 
   866  1E23                     	;# 
   867  1E24                     	;# 
   868  1E25                     	;# 
   869  1E26                     	;# 
   870  1E27                     	;# 
   871  1E28                     	;# 
   872  1E29                     	;# 
   873  1E2A                     	;# 
   874  1E2B                     	;# 
   875  1E2C                     	;# 
   876  1E2D                     	;# 
   877  1E2E                     	;# 
   878  1E2F                     	;# 
   879  1E30                     	;# 
   880  1E31                     	;# 
   881  1E32                     	;# 
   882  1E33                     	;# 
   883  1E34                     	;# 
   884  1E35                     	;# 
   885  1E36                     	;# 
   886  1E37                     	;# 
   887  1E8F                     	;# 
   888  1E90                     	;# 
   889  1E91                     	;# 
   890  1E92                     	;# 
   891  1E93                     	;# 
   892  1E94                     	;# 
   893  1E95                     	;# 
   894  1E96                     	;# 
   895  1E97                     	;# 
   896  1E9C                     	;# 
   897  1E9D                     	;# 
   898  1E9E                     	;# 
   899  1EA1                     	;# 
   900  1EA2                     	;# 
   901  1EA3                     	;# 
   902  1EA4                     	;# 
   903  1EA9                     	;# 
   904  1EAA                     	;# 
   905  1EB1                     	;# 
   906  1EB2                     	;# 
   907  1EB8                     	;# 
   908  1EB9                     	;# 
   909  1EBA                     	;# 
   910  1EBB                     	;# 
   911  1EBC                     	;# 
   912  1EBD                     	;# 
   913  1EBE                     	;# 
   914  1EC3                     	;# 
   915  1EC5                     	;# 
   916  1EC6                     	;# 
   917  1EC7                     	;# 
   918  1EC8                     	;# 
   919  1EC9                     	;# 
   920  1ECA                     	;# 
   921  1ECB                     	;# 
   922  1ECB                     	;# 
   923  1ECB                     	;# 
   924  1ECC                     	;# 
   925  1ECC                     	;# 
   926  1ECC                     	;# 
   927  1F10                     	;# 
   928  1F11                     	;# 
   929  1F12                     	;# 
   930  1F14                     	;# 
   931  1F15                     	;# 
   932  1F1C                     	;# 
   933  1F1D                     	;# 
   934  1F1E                     	;# 
   935  1F1F                     	;# 
   936  1F20                     	;# 
   937  1F21                     	;# 
   938  1F22                     	;# 
   939  1F23                     	;# 
   940  1F24                     	;# 
   941  1F25                     	;# 
   942  1F26                     	;# 
   943  1F27                     	;# 
   944  1F38                     	;# 
   945  1F39                     	;# 
   946  1F3A                     	;# 
   947  1F3B                     	;# 
   948  1F3C                     	;# 
   949  1F3D                     	;# 
   950  1F3E                     	;# 
   951  1F3F                     	;# 
   952  1F43                     	;# 
   953  1F44                     	;# 
   954  1F45                     	;# 
   955  1F46                     	;# 
   956  1F47                     	;# 
   957  1F48                     	;# 
   958  1F49                     	;# 
   959  1F4A                     	;# 
   960  1F4E                     	;# 
   961  1F4F                     	;# 
   962  1F50                     	;# 
   963  1F51                     	;# 
   964  1F52                     	;# 
   965  1F53                     	;# 
   966  1F54                     	;# 
   967  1F55                     	;# 
   968  1FE4                     	;# 
   969  1FE5                     	;# 
   970  1FE6                     	;# 
   971  1FE7                     	;# 
   972  1FE8                     	;# 
   973  1FE8                     	;# 
   974  1FE9                     	;# 
   975  1FEA                     	;# 
   976  1FEB                     	;# 
   977  1FED                     	;# 
   978  1FEE                     	;# 
   979  1FEF                     	;# 
   980  0000                     	;# 
   981  0001                     	;# 
   982  0002                     	;# 
   983  0003                     	;# 
   984  0004                     	;# 
   985  0005                     	;# 
   986  0006                     	;# 
   987  0007                     	;# 
   988  0008                     	;# 
   989  0009                     	;# 
   990  000A                     	;# 
   991  000B                     	;# 
   992  000C                     	;# 
   993  000D                     	;# 
   994  000E                     	;# 
   995  0012                     	;# 
   996  0013                     	;# 
   997  0014                     	;# 
   998  0018                     	;# 
   999  0019                     	;# 
  1000  001A                     	;# 
  1001  008C                     	;# 
  1002  008C                     	;# 
  1003  008D                     	;# 
  1004  008E                     	;# 
  1005  008E                     	;# 
  1006  008F                     	;# 
  1007  0090                     	;# 
  1008  0090                     	;# 
  1009  0091                     	;# 
  1010  0092                     	;# 
  1011  0092                     	;# 
  1012  0093                     	;# 
  1013  0094                     	;# 
  1014  0094                     	;# 
  1015  0095                     	;# 
  1016  0096                     	;# 
  1017  0096                     	;# 
  1018  0097                     	;# 
  1019  0098                     	;# 
  1020  0099                     	;# 
  1021  009A                     	;# 
  1022  009B                     	;# 
  1023  009B                     	;# 
  1024  009C                     	;# 
  1025  009D                     	;# 
  1026  009D                     	;# 
  1027  009E                     	;# 
  1028  009F                     	;# 
  1029  010C                     	;# 
  1030  010C                     	;# 
  1031  010D                     	;# 
  1032  010E                     	;# 
  1033  010F                     	;# 
  1034  010F                     	;# 
  1035  0110                     	;# 
  1036  0111                     	;# 
  1037  0112                     	;# 
  1038  0113                     	;# 
  1039  0114                     	;# 
  1040  0115                     	;# 
  1041  0116                     	;# 
  1042  0117                     	;# 
  1043  0118                     	;# 
  1044  0119                     	;# 
  1045  0119                     	;# 
  1046  0119                     	;# 
  1047  011A                     	;# 
  1048  011A                     	;# 
  1049  011A                     	;# 
  1050  011B                     	;# 
  1051  011B                     	;# 
  1052  011B                     	;# 
  1053  011B                     	;# 
  1054  011B                     	;# 
  1055  011C                     	;# 
  1056  011C                     	;# 
  1057  011C                     	;# 
  1058  011D                     	;# 
  1059  011D                     	;# 
  1060  011D                     	;# 
  1061  011E                     	;# 
  1062  011E                     	;# 
  1063  011E                     	;# 
  1064  011F                     	;# 
  1065  011F                     	;# 
  1066  011F                     	;# 
  1067  011F                     	;# 
  1068  011F                     	;# 
  1069  018C                     	;# 
  1070  018D                     	;# 
  1071  018E                     	;# 
  1072  018F                     	;# 
  1073  0190                     	;# 
  1074  0191                     	;# 
  1075  0192                     	;# 
  1076  0196                     	;# 
  1077  0197                     	;# 
  1078  0198                     	;# 
  1079  0199                     	;# 
  1080  019A                     	;# 
  1081  019B                     	;# 
  1082  019C                     	;# 
  1083  020C                     	;# 
  1084  020D                     	;# 
  1085  020E                     	;# 
  1086  020E                     	;# 
  1087  020F                     	;# 
  1088  020F                     	;# 
  1089  0210                     	;# 
  1090  0210                     	;# 
  1091  0211                     	;# 
  1092  0211                     	;# 
  1093  0212                     	;# 
  1094  0213                     	;# 
  1095  0214                     	;# 
  1096  0214                     	;# 
  1097  0215                     	;# 
  1098  0215                     	;# 
  1099  0216                     	;# 
  1100  0216                     	;# 
  1101  0217                     	;# 
  1102  0217                     	;# 
  1103  0218                     	;# 
  1104  0219                     	;# 
  1105  021A                     	;# 
  1106  021A                     	;# 
  1107  021B                     	;# 
  1108  021B                     	;# 
  1109  021C                     	;# 
  1110  021C                     	;# 
  1111  021D                     	;# 
  1112  021D                     	;# 
  1113  021E                     	;# 
  1114  021F                     	;# 
  1115  028C                     	;# 
  1116  028C                     	;# 
  1117  028D                     	;# 
  1118  028D                     	;# 
  1119  028E                     	;# 
  1120  028F                     	;# 
  1121  0290                     	;# 
  1122  0291                     	;# 
  1123  0292                     	;# 
  1124  0292                     	;# 
  1125  0293                     	;# 
  1126  0293                     	;# 
  1127  0294                     	;# 
  1128  0295                     	;# 
  1129  0296                     	;# 
  1130  0297                     	;# 
  1131  0298                     	;# 
  1132  0298                     	;# 
  1133  0299                     	;# 
  1134  0299                     	;# 
  1135  029A                     	;# 
  1136  029B                     	;# 
  1137  029C                     	;# 
  1138  029D                     	;# 
  1139  029F                     	;# 
  1140  030C                     	;# 
  1141  030C                     	;# 
  1142  030D                     	;# 
  1143  030E                     	;# 
  1144  030F                     	;# 
  1145  0310                     	;# 
  1146  0310                     	;# 
  1147  0311                     	;# 
  1148  0312                     	;# 
  1149  0313                     	;# 
  1150  0314                     	;# 
  1151  0314                     	;# 
  1152  0315                     	;# 
  1153  0316                     	;# 
  1154  0317                     	;# 
  1155  0318                     	;# 
  1156  0318                     	;# 
  1157  0319                     	;# 
  1158  031A                     	;# 
  1159  031B                     	;# 
  1160  038C                     	;# 
  1161  038C                     	;# 
  1162  038D                     	;# 
  1163  038E                     	;# 
  1164  0390                     	;# 
  1165  0390                     	;# 
  1166  0391                     	;# 
  1167  0392                     	;# 
  1168  048C                     	;# 
  1169  048C                     	;# 
  1170  048D                     	;# 
  1171  048E                     	;# 
  1172  048F                     	;# 
  1173  048F                     	;# 
  1174  0490                     	;# 
  1175  0491                     	;# 
  1176  0492                     	;# 
  1177  0492                     	;# 
  1178  0493                     	;# 
  1179  0494                     	;# 
  1180  0495                     	;# 
  1181  0495                     	;# 
  1182  0496                     	;# 
  1183  0497                     	;# 
  1184  0498                     	;# 
  1185  0499                     	;# 
  1186  049A                     	;# 
  1187  049B                     	;# 
  1188  049C                     	;# 
  1189  049D                     	;# 
  1190  058C                     	;# 
  1191  058C                     	;# 
  1192  058D                     	;# 
  1193  058E                     	;# 
  1194  058F                     	;# 
  1195  058F                     	;# 
  1196  0590                     	;# 
  1197  0591                     	;# 
  1198  0592                     	;# 
  1199  0593                     	;# 
  1200  059C                     	;# 
  1201  059C                     	;# 
  1202  059D                     	;# 
  1203  059D                     	;# 
  1204  059E                     	;# 
  1205  059F                     	;# 
  1206  060C                     	;# 
  1207  060C                     	;# 
  1208  060D                     	;# 
  1209  060D                     	;# 
  1210  060E                     	;# 
  1211  060F                     	;# 
  1212  0610                     	;# 
  1213  0611                     	;# 
  1214  0612                     	;# 
  1215  0613                     	;# 
  1216  0614                     	;# 
  1217  0616                     	;# 
  1218  0616                     	;# 
  1219  0617                     	;# 
  1220  0617                     	;# 
  1221  0618                     	;# 
  1222  0619                     	;# 
  1223  061A                     	;# 
  1224  061B                     	;# 
  1225  061C                     	;# 
  1226  061D                     	;# 
  1227  061E                     	;# 
  1228  070C                     	;# 
  1229  070D                     	;# 
  1230  070E                     	;# 
  1231  070F                     	;# 
  1232  0710                     	;# 
  1233  0711                     	;# 
  1234  0712                     	;# 
  1235  0713                     	;# 
  1236  0714                     	;# 
  1237  0716                     	;# 
  1238  0717                     	;# 
  1239  0718                     	;# 
  1240  0719                     	;# 
  1241  071A                     	;# 
  1242  071B                     	;# 
  1243  071C                     	;# 
  1244  071D                     	;# 
  1245  071E                     	;# 
  1246  0796                     	;# 
  1247  0797                     	;# 
  1248  0798                     	;# 
  1249  0799                     	;# 
  1250  079A                     	;# 
  1251  079B                     	;# 
  1252  079C                     	;# 
  1253  079D                     	;# 
  1254  080C                     	;# 
  1255  080D                     	;# 
  1256  080E                     	;# 
  1257  080F                     	;# 
  1258  0810                     	;# 
  1259  0811                     	;# 
  1260  0812                     	;# 
  1261  0813                     	;# 
  1262  0814                     	;# 
  1263  081A                     	;# 
  1264  081A                     	;# 
  1265  081B                     	;# 
  1266  081C                     	;# 
  1267  081C                     	;# 
  1268  081D                     	;# 
  1269  081E                     	;# 
  1270  081F                     	;# 
  1271  088C                     	;# 
  1272  088D                     	;# 
  1273  088E                     	;# 
  1274  088F                     	;# 
  1275  0890                     	;# 
  1276  0891                     	;# 
  1277  0892                     	;# 
  1278  0893                     	;# 
  1279  0895                     	;# 
  1280  0896                     	;# 
  1281  0897                     	;# 
  1282  0898                     	;# 
  1283  0899                     	;# 
  1284  089A                     	;# 
  1285  089B                     	;# 
  1286  090C                     	;# 
  1287  090E                     	;# 
  1288  090F                     	;# 
  1289  091F                     	;# 
  1290  098F                     	;# 
  1291  098F                     	;# 
  1292  0990                     	;# 
  1293  0991                     	;# 
  1294  0992                     	;# 
  1295  0993                     	;# 
  1296  0994                     	;# 
  1297  0995                     	;# 
  1298  0996                     	;# 
  1299  0997                     	;# 
  1300  1E0F                     	;# 
  1301  1E10                     	;# 
  1302  1E11                     	;# 
  1303  1E12                     	;# 
  1304  1E13                     	;# 
  1305  1E14                     	;# 
  1306  1E15                     	;# 
  1307  1E16                     	;# 
  1308  1E17                     	;# 
  1309  1E18                     	;# 
  1310  1E19                     	;# 
  1311  1E1A                     	;# 
  1312  1E1B                     	;# 
  1313  1E1C                     	;# 
  1314  1E1D                     	;# 
  1315  1E1E                     	;# 
  1316  1E1F                     	;# 
  1317  1E20                     	;# 
  1318  1E21                     	;# 
  1319  1E22                     	;# 
  1320  1E23                     	;# 
  1321  1E24                     	;# 
  1322  1E25                     	;# 
  1323  1E26                     	;# 
  1324  1E27                     	;# 
  1325  1E28                     	;# 
  1326  1E29                     	;# 
  1327  1E2A                     	;# 
  1328  1E2B                     	;# 
  1329  1E2C                     	;# 
  1330  1E2D                     	;# 
  1331  1E2E                     	;# 
  1332  1E2F                     	;# 
  1333  1E30                     	;# 
  1334  1E31                     	;# 
  1335  1E32                     	;# 
  1336  1E33                     	;# 
  1337  1E34                     	;# 
  1338  1E35                     	;# 
  1339  1E36                     	;# 
  1340  1E37                     	;# 
  1341  1E8F                     	;# 
  1342  1E90                     	;# 
  1343  1E91                     	;# 
  1344  1E92                     	;# 
  1345  1E93                     	;# 
  1346  1E94                     	;# 
  1347  1E95                     	;# 
  1348  1E96                     	;# 
  1349  1E97                     	;# 
  1350  1E9C                     	;# 
  1351  1E9D                     	;# 
  1352  1E9E                     	;# 
  1353  1EA1                     	;# 
  1354  1EA2                     	;# 
  1355  1EA3                     	;# 
  1356  1EA4                     	;# 
  1357  1EA9                     	;# 
  1358  1EAA                     	;# 
  1359  1EB1                     	;# 
  1360  1EB2                     	;# 
  1361  1EB8                     	;# 
  1362  1EB9                     	;# 
  1363  1EBA                     	;# 
  1364  1EBB                     	;# 
  1365  1EBC                     	;# 
  1366  1EBD                     	;# 
  1367  1EBE                     	;# 
  1368  1EC3                     	;# 
  1369  1EC5                     	;# 
  1370  1EC6                     	;# 
  1371  1EC7                     	;# 
  1372  1EC8                     	;# 
  1373  1EC9                     	;# 
  1374  1ECA                     	;# 
  1375  1ECB                     	;# 
  1376  1ECB                     	;# 
  1377  1ECB                     	;# 
  1378  1ECC                     	;# 
  1379  1ECC                     	;# 
  1380  1ECC                     	;# 
  1381  1F10                     	;# 
  1382  1F11                     	;# 
  1383  1F12                     	;# 
  1384  1F14                     	;# 
  1385  1F15                     	;# 
  1386  1F1C                     	;# 
  1387  1F1D                     	;# 
  1388  1F1E                     	;# 
  1389  1F1F                     	;# 
  1390  1F20                     	;# 
  1391  1F21                     	;# 
  1392  1F22                     	;# 
  1393  1F23                     	;# 
  1394  1F24                     	;# 
  1395  1F25                     	;# 
  1396  1F26                     	;# 
  1397  1F27                     	;# 
  1398  1F38                     	;# 
  1399  1F39                     	;# 
  1400  1F3A                     	;# 
  1401  1F3B                     	;# 
  1402  1F3C                     	;# 
  1403  1F3D                     	;# 
  1404  1F3E                     	;# 
  1405  1F3F                     	;# 
  1406  1F43                     	;# 
  1407  1F44                     	;# 
  1408  1F45                     	;# 
  1409  1F46                     	;# 
  1410  1F47                     	;# 
  1411  1F48                     	;# 
  1412  1F49                     	;# 
  1413  1F4A                     	;# 
  1414  1F4E                     	;# 
  1415  1F4F                     	;# 
  1416  1F50                     	;# 
  1417  1F51                     	;# 
  1418  1F52                     	;# 
  1419  1F53                     	;# 
  1420  1F54                     	;# 
  1421  1F55                     	;# 
  1422  1FE4                     	;# 
  1423  1FE5                     	;# 
  1424  1FE6                     	;# 
  1425  1FE7                     	;# 
  1426  1FE8                     	;# 
  1427  1FE8                     	;# 
  1428  1FE9                     	;# 
  1429  1FEA                     	;# 
  1430  1FEB                     	;# 
  1431  1FED                     	;# 
  1432  1FEE                     	;# 
  1433  1FEF                     	;# 
  1434  0000                     	;# 
  1435  0001                     	;# 
  1436  0002                     	;# 
  1437  0003                     	;# 
  1438  0004                     	;# 
  1439  0005                     	;# 
  1440  0006                     	;# 
  1441  0007                     	;# 
  1442  0008                     	;# 
  1443  0009                     	;# 
  1444  000A                     	;# 
  1445  000B                     	;# 
  1446  000C                     	;# 
  1447  000D                     	;# 
  1448  000E                     	;# 
  1449  0012                     	;# 
  1450  0013                     	;# 
  1451  0014                     	;# 
  1452  0018                     	;# 
  1453  0019                     	;# 
  1454  001A                     	;# 
  1455  008C                     	;# 
  1456  008C                     	;# 
  1457  008D                     	;# 
  1458  008E                     	;# 
  1459  008E                     	;# 
  1460  008F                     	;# 
  1461  0090                     	;# 
  1462  0090                     	;# 
  1463  0091                     	;# 
  1464  0092                     	;# 
  1465  0092                     	;# 
  1466  0093                     	;# 
  1467  0094                     	;# 
  1468  0094                     	;# 
  1469  0095                     	;# 
  1470  0096                     	;# 
  1471  0096                     	;# 
  1472  0097                     	;# 
  1473  0098                     	;# 
  1474  0099                     	;# 
  1475  009A                     	;# 
  1476  009B                     	;# 
  1477  009B                     	;# 
  1478  009C                     	;# 
  1479  009D                     	;# 
  1480  009D                     	;# 
  1481  009E                     	;# 
  1482  009F                     	;# 
  1483  010C                     	;# 
  1484  010C                     	;# 
  1485  010D                     	;# 
  1486  010E                     	;# 
  1487  010F                     	;# 
  1488  010F                     	;# 
  1489  0110                     	;# 
  1490  0111                     	;# 
  1491  0112                     	;# 
  1492  0113                     	;# 
  1493  0114                     	;# 
  1494  0115                     	;# 
  1495  0116                     	;# 
  1496  0117                     	;# 
  1497  0118                     	;# 
  1498  0119                     	;# 
  1499  0119                     	;# 
  1500  0119                     	;# 
  1501  011A                     	;# 
  1502  011A                     	;# 
  1503  011A                     	;# 
  1504  011B                     	;# 
  1505  011B                     	;# 
  1506  011B                     	;# 
  1507  011B                     	;# 
  1508  011B                     	;# 
  1509  011C                     	;# 
  1510  011C                     	;# 
  1511  011C                     	;# 
  1512  011D                     	;# 
  1513  011D                     	;# 
  1514  011D                     	;# 
  1515  011E                     	;# 
  1516  011E                     	;# 
  1517  011E                     	;# 
  1518  011F                     	;# 
  1519  011F                     	;# 
  1520  011F                     	;# 
  1521  011F                     	;# 
  1522  011F                     	;# 
  1523  018C                     	;# 
  1524  018D                     	;# 
  1525  018E                     	;# 
  1526  018F                     	;# 
  1527  0190                     	;# 
  1528  0191                     	;# 
  1529  0192                     	;# 
  1530  0196                     	;# 
  1531  0197                     	;# 
  1532  0198                     	;# 
  1533  0199                     	;# 
  1534  019A                     	;# 
  1535  019B                     	;# 
  1536  019C                     	;# 
  1537  020C                     	;# 
  1538  020D                     	;# 
  1539  020E                     	;# 
  1540  020E                     	;# 
  1541  020F                     	;# 
  1542  020F                     	;# 
  1543  0210                     	;# 
  1544  0210                     	;# 
  1545  0211                     	;# 
  1546  0211                     	;# 
  1547  0212                     	;# 
  1548  0213                     	;# 
  1549  0214                     	;# 
  1550  0214                     	;# 
  1551  0215                     	;# 
  1552  0215                     	;# 
  1553  0216                     	;# 
  1554  0216                     	;# 
  1555  0217                     	;# 
  1556  0217                     	;# 
  1557  0218                     	;# 
  1558  0219                     	;# 
  1559  021A                     	;# 
  1560  021A                     	;# 
  1561  021B                     	;# 
  1562  021B                     	;# 
  1563  021C                     	;# 
  1564  021C                     	;# 
  1565  021D                     	;# 
  1566  021D                     	;# 
  1567  021E                     	;# 
  1568  021F                     	;# 
  1569  028C                     	;# 
  1570  028C                     	;# 
  1571  028D                     	;# 
  1572  028D                     	;# 
  1573  028E                     	;# 
  1574  028F                     	;# 
  1575  0290                     	;# 
  1576  0291                     	;# 
  1577  0292                     	;# 
  1578  0292                     	;# 
  1579  0293                     	;# 
  1580  0293                     	;# 
  1581  0294                     	;# 
  1582  0295                     	;# 
  1583  0296                     	;# 
  1584  0297                     	;# 
  1585  0298                     	;# 
  1586  0298                     	;# 
  1587  0299                     	;# 
  1588  0299                     	;# 
  1589  029A                     	;# 
  1590  029B                     	;# 
  1591  029C                     	;# 
  1592  029D                     	;# 
  1593  029F                     	;# 
  1594  030C                     	;# 
  1595  030C                     	;# 
  1596  030D                     	;# 
  1597  030E                     	;# 
  1598  030F                     	;# 
  1599  0310                     	;# 
  1600  0310                     	;# 
  1601  0311                     	;# 
  1602  0312                     	;# 
  1603  0313                     	;# 
  1604  0314                     	;# 
  1605  0314                     	;# 
  1606  0315                     	;# 
  1607  0316                     	;# 
  1608  0317                     	;# 
  1609  0318                     	;# 
  1610  0318                     	;# 
  1611  0319                     	;# 
  1612  031A                     	;# 
  1613  031B                     	;# 
  1614  038C                     	;# 
  1615  038C                     	;# 
  1616  038D                     	;# 
  1617  038E                     	;# 
  1618  0390                     	;# 
  1619  0390                     	;# 
  1620  0391                     	;# 
  1621  0392                     	;# 
  1622  048C                     	;# 
  1623  048C                     	;# 
  1624  048D                     	;# 
  1625  048E                     	;# 
  1626  048F                     	;# 
  1627  048F                     	;# 
  1628  0490                     	;# 
  1629  0491                     	;# 
  1630  0492                     	;# 
  1631  0492                     	;# 
  1632  0493                     	;# 
  1633  0494                     	;# 
  1634  0495                     	;# 
  1635  0495                     	;# 
  1636  0496                     	;# 
  1637  0497                     	;# 
  1638  0498                     	;# 
  1639  0499                     	;# 
  1640  049A                     	;# 
  1641  049B                     	;# 
  1642  049C                     	;# 
  1643  049D                     	;# 
  1644  058C                     	;# 
  1645  058C                     	;# 
  1646  058D                     	;# 
  1647  058E                     	;# 
  1648  058F                     	;# 
  1649  058F                     	;# 
  1650  0590                     	;# 
  1651  0591                     	;# 
  1652  0592                     	;# 
  1653  0593                     	;# 
  1654  059C                     	;# 
  1655  059C                     	;# 
  1656  059D                     	;# 
  1657  059D                     	;# 
  1658  059E                     	;# 
  1659  059F                     	;# 
  1660  060C                     	;# 
  1661  060C                     	;# 
  1662  060D                     	;# 
  1663  060D                     	;# 
  1664  060E                     	;# 
  1665  060F                     	;# 
  1666  0610                     	;# 
  1667  0611                     	;# 
  1668  0612                     	;# 
  1669  0613                     	;# 
  1670  0614                     	;# 
  1671  0616                     	;# 
  1672  0616                     	;# 
  1673  0617                     	;# 
  1674  0617                     	;# 
  1675  0618                     	;# 
  1676  0619                     	;# 
  1677  061A                     	;# 
  1678  061B                     	;# 
  1679  061C                     	;# 
  1680  061D                     	;# 
  1681  061E                     	;# 
  1682  070C                     	;# 
  1683  070D                     	;# 
  1684  070E                     	;# 
  1685  070F                     	;# 
  1686  0710                     	;# 
  1687  0711                     	;# 
  1688  0712                     	;# 
  1689  0713                     	;# 
  1690  0714                     	;# 
  1691  0716                     	;# 
  1692  0717                     	;# 
  1693  0718                     	;# 
  1694  0719                     	;# 
  1695  071A                     	;# 
  1696  071B                     	;# 
  1697  071C                     	;# 
  1698  071D                     	;# 
  1699  071E                     	;# 
  1700  0796                     	;# 
  1701  0797                     	;# 
  1702  0798                     	;# 
  1703  0799                     	;# 
  1704  079A                     	;# 
  1705  079B                     	;# 
  1706  079C                     	;# 
  1707  079D                     	;# 
  1708  080C                     	;# 
  1709  080D                     	;# 
  1710  080E                     	;# 
  1711  080F                     	;# 
  1712  0810                     	;# 
  1713  0811                     	;# 
  1714  0812                     	;# 
  1715  0813                     	;# 
  1716  0814                     	;# 
  1717  081A                     	;# 
  1718  081A                     	;# 
  1719  081B                     	;# 
  1720  081C                     	;# 
  1721  081C                     	;# 
  1722  081D                     	;# 
  1723  081E                     	;# 
  1724  081F                     	;# 
  1725  088C                     	;# 
  1726  088D                     	;# 
  1727  088E                     	;# 
  1728  088F                     	;# 
  1729  0890                     	;# 
  1730  0891                     	;# 
  1731  0892                     	;# 
  1732  0893                     	;# 
  1733  0895                     	;# 
  1734  0896                     	;# 
  1735  0897                     	;# 
  1736  0898                     	;# 
  1737  0899                     	;# 
  1738  089A                     	;# 
  1739  089B                     	;# 
  1740  090C                     	;# 
  1741  090E                     	;# 
  1742  090F                     	;# 
  1743  091F                     	;# 
  1744  098F                     	;# 
  1745  098F                     	;# 
  1746  0990                     	;# 
  1747  0991                     	;# 
  1748  0992                     	;# 
  1749  0993                     	;# 
  1750  0994                     	;# 
  1751  0995                     	;# 
  1752  0996                     	;# 
  1753  0997                     	;# 
  1754  1E0F                     	;# 
  1755  1E10                     	;# 
  1756  1E11                     	;# 
  1757  1E12                     	;# 
  1758  1E13                     	;# 
  1759  1E14                     	;# 
  1760  1E15                     	;# 
  1761  1E16                     	;# 
  1762  1E17                     	;# 
  1763  1E18                     	;# 
  1764  1E19                     	;# 
  1765  1E1A                     	;# 
  1766  1E1B                     	;# 
  1767  1E1C                     	;# 
  1768  1E1D                     	;# 
  1769  1E1E                     	;# 
  1770  1E1F                     	;# 
  1771  1E20                     	;# 
  1772  1E21                     	;# 
  1773  1E22                     	;# 
  1774  1E23                     	;# 
  1775  1E24                     	;# 
  1776  1E25                     	;# 
  1777  1E26                     	;# 
  1778  1E27                     	;# 
  1779  1E28                     	;# 
  1780  1E29                     	;# 
  1781  1E2A                     	;# 
  1782  1E2B                     	;# 
  1783  1E2C                     	;# 
  1784  1E2D                     	;# 
  1785  1E2E                     	;# 
  1786  1E2F                     	;# 
  1787  1E30                     	;# 
  1788  1E31                     	;# 
  1789  1E32                     	;# 
  1790  1E33                     	;# 
  1791  1E34                     	;# 
  1792  1E35                     	;# 
  1793  1E36                     	;# 
  1794  1E37                     	;# 
  1795  1E8F                     	;# 
  1796  1E90                     	;# 
  1797  1E91                     	;# 
  1798  1E92                     	;# 
  1799  1E93                     	;# 
  1800  1E94                     	;# 
  1801  1E95                     	;# 
  1802  1E96                     	;# 
  1803  1E97                     	;# 
  1804  1E9C                     	;# 
  1805  1E9D                     	;# 
  1806  1E9E                     	;# 
  1807  1EA1                     	;# 
  1808  1EA2                     	;# 
  1809  1EA3                     	;# 
  1810  1EA4                     	;# 
  1811  1EA9                     	;# 
  1812  1EAA                     	;# 
  1813  1EB1                     	;# 
  1814  1EB2                     	;# 
  1815  1EB8                     	;# 
  1816  1EB9                     	;# 
  1817  1EBA                     	;# 
  1818  1EBB                     	;# 
  1819  1EBC                     	;# 
  1820  1EBD                     	;# 
  1821  1EBE                     	;# 
  1822  1EC3                     	;# 
  1823  1EC5                     	;# 
  1824  1EC6                     	;# 
  1825  1EC7                     	;# 
  1826  1EC8                     	;# 
  1827  1EC9                     	;# 
  1828  1ECA                     	;# 
  1829  1ECB                     	;# 
  1830  1ECB                     	;# 
  1831  1ECB                     	;# 
  1832  1ECC                     	;# 
  1833  1ECC                     	;# 
  1834  1ECC                     	;# 
  1835  1F10                     	;# 
  1836  1F11                     	;# 
  1837  1F12                     	;# 
  1838  1F14                     	;# 
  1839  1F15                     	;# 
  1840  1F1C                     	;# 
  1841  1F1D                     	;# 
  1842  1F1E                     	;# 
  1843  1F1F                     	;# 
  1844  1F20                     	;# 
  1845  1F21                     	;# 
  1846  1F22                     	;# 
  1847  1F23                     	;# 
  1848  1F24                     	;# 
  1849  1F25                     	;# 
  1850  1F26                     	;# 
  1851  1F27                     	;# 
  1852  1F38                     	;# 
  1853  1F39                     	;# 
  1854  1F3A                     	;# 
  1855  1F3B                     	;# 
  1856  1F3C                     	;# 
  1857  1F3D                     	;# 
  1858  1F3E                     	;# 
  1859  1F3F                     	;# 
  1860  1F43                     	;# 
  1861  1F44                     	;# 
  1862  1F45                     	;# 
  1863  1F46                     	;# 
  1864  1F47                     	;# 
  1865  1F48                     	;# 
  1866  1F49                     	;# 
  1867  1F4A                     	;# 
  1868  1F4E                     	;# 
  1869  1F4F                     	;# 
  1870  1F50                     	;# 
  1871  1F51                     	;# 
  1872  1F52                     	;# 
  1873  1F53                     	;# 
  1874  1F54                     	;# 
  1875  1F55                     	;# 
  1876  1FE4                     	;# 
  1877  1FE5                     	;# 
  1878  1FE6                     	;# 
  1879  1FE7                     	;# 
  1880  1FE8                     	;# 
  1881  1FE8                     	;# 
  1882  1FE9                     	;# 
  1883  1FEA                     	;# 
  1884  1FEB                     	;# 
  1885  1FED                     	;# 
  1886  1FEE                     	;# 
  1887  1FEF                     	;# 
  1888  0000                     	;# 
  1889  0001                     	;# 
  1890  0002                     	;# 
  1891  0003                     	;# 
  1892  0004                     	;# 
  1893  0005                     	;# 
  1894  0006                     	;# 
  1895  0007                     	;# 
  1896  0008                     	;# 
  1897  0009                     	;# 
  1898  000A                     	;# 
  1899  000B                     	;# 
  1900  000C                     	;# 
  1901  000D                     	;# 
  1902  000E                     	;# 
  1903  0012                     	;# 
  1904  0013                     	;# 
  1905  0014                     	;# 
  1906  0018                     	;# 
  1907  0019                     	;# 
  1908  001A                     	;# 
  1909  008C                     	;# 
  1910  008C                     	;# 
  1911  008D                     	;# 
  1912  008E                     	;# 
  1913  008E                     	;# 
  1914  008F                     	;# 
  1915  0090                     	;# 
  1916  0090                     	;# 
  1917  0091                     	;# 
  1918  0092                     	;# 
  1919  0092                     	;# 
  1920  0093                     	;# 
  1921  0094                     	;# 
  1922  0094                     	;# 
  1923  0095                     	;# 
  1924  0096                     	;# 
  1925  0096                     	;# 
  1926  0097                     	;# 
  1927  0098                     	;# 
  1928  0099                     	;# 
  1929  009A                     	;# 
  1930  009B                     	;# 
  1931  009B                     	;# 
  1932  009C                     	;# 
  1933  009D                     	;# 
  1934  009D                     	;# 
  1935  009E                     	;# 
  1936  009F                     	;# 
  1937  010C                     	;# 
  1938  010C                     	;# 
  1939  010D                     	;# 
  1940  010E                     	;# 
  1941  010F                     	;# 
  1942  010F                     	;# 
  1943  0110                     	;# 
  1944  0111                     	;# 
  1945  0112                     	;# 
  1946  0113                     	;# 
  1947  0114                     	;# 
  1948  0115                     	;# 
  1949  0116                     	;# 
  1950  0117                     	;# 
  1951  0118                     	;# 
  1952  0119                     	;# 
  1953  0119                     	;# 
  1954  0119                     	;# 
  1955  011A                     	;# 
  1956  011A                     	;# 
  1957  011A                     	;# 
  1958  011B                     	;# 
  1959  011B                     	;# 
  1960  011B                     	;# 
  1961  011B                     	;# 
  1962  011B                     	;# 
  1963  011C                     	;# 
  1964  011C                     	;# 
  1965  011C                     	;# 
  1966  011D                     	;# 
  1967  011D                     	;# 
  1968  011D                     	;# 
  1969  011E                     	;# 
  1970  011E                     	;# 
  1971  011E                     	;# 
  1972  011F                     	;# 
  1973  011F                     	;# 
  1974  011F                     	;# 
  1975  011F                     	;# 
  1976  011F                     	;# 
  1977  018C                     	;# 
  1978  018D                     	;# 
  1979  018E                     	;# 
  1980  018F                     	;# 
  1981  0190                     	;# 
  1982  0191                     	;# 
  1983  0192                     	;# 
  1984  0196                     	;# 
  1985  0197                     	;# 
  1986  0198                     	;# 
  1987  0199                     	;# 
  1988  019A                     	;# 
  1989  019B                     	;# 
  1990  019C                     	;# 
  1991  020C                     	;# 
  1992  020D                     	;# 
  1993  020E                     	;# 
  1994  020E                     	;# 
  1995  020F                     	;# 
  1996  020F                     	;# 
  1997  0210                     	;# 
  1998  0210                     	;# 
  1999  0211                     	;# 
  2000  0211                     	;# 
  2001  0212                     	;# 
  2002  0213                     	;# 
  2003  0214                     	;# 
  2004  0214                     	;# 
  2005  0215                     	;# 
  2006  0215                     	;# 
  2007  0216                     	;# 
  2008  0216                     	;# 
  2009  0217                     	;# 
  2010  0217                     	;# 
  2011  0218                     	;# 
  2012  0219                     	;# 
  2013  021A                     	;# 
  2014  021A                     	;# 
  2015  021B                     	;# 
  2016  021B                     	;# 
  2017  021C                     	;# 
  2018  021C                     	;# 
  2019  021D                     	;# 
  2020  021D                     	;# 
  2021  021E                     	;# 
  2022  021F                     	;# 
  2023  028C                     	;# 
  2024  028C                     	;# 
  2025  028D                     	;# 
  2026  028D                     	;# 
  2027  028E                     	;# 
  2028  028F                     	;# 
  2029  0290                     	;# 
  2030  0291                     	;# 
  2031  0292                     	;# 
  2032  0292                     	;# 
  2033  0293                     	;# 
  2034  0293                     	;# 
  2035  0294                     	;# 
  2036  0295                     	;# 
  2037  0296                     	;# 
  2038  0297                     	;# 
  2039  0298                     	;# 
  2040  0298                     	;# 
  2041  0299                     	;# 
  2042  0299                     	;# 
  2043  029A                     	;# 
  2044  029B                     	;# 
  2045  029C                     	;# 
  2046  029D                     	;# 
  2047  029F                     	;# 
  2048  030C                     	;# 
  2049  030C                     	;# 
  2050  030D                     	;# 
  2051  030E                     	;# 
  2052  030F                     	;# 
  2053  0310                     	;# 
  2054  0310                     	;# 
  2055  0311                     	;# 
  2056  0312                     	;# 
  2057  0313                     	;# 
  2058  0314                     	;# 
  2059  0314                     	;# 
  2060  0315                     	;# 
  2061  0316                     	;# 
  2062  0317                     	;# 
  2063  0318                     	;# 
  2064  0318                     	;# 
  2065  0319                     	;# 
  2066  031A                     	;# 
  2067  031B                     	;# 
  2068  038C                     	;# 
  2069  038C                     	;# 
  2070  038D                     	;# 
  2071  038E                     	;# 
  2072  0390                     	;# 
  2073  0390                     	;# 
  2074  0391                     	;# 
  2075  0392                     	;# 
  2076  048C                     	;# 
  2077  048C                     	;# 
  2078  048D                     	;# 
  2079  048E                     	;# 
  2080  048F                     	;# 
  2081  048F                     	;# 
  2082  0490                     	;# 
  2083  0491                     	;# 
  2084  0492                     	;# 
  2085  0492                     	;# 
  2086  0493                     	;# 
  2087  0494                     	;# 
  2088  0495                     	;# 
  2089  0495                     	;# 
  2090  0496                     	;# 
  2091  0497                     	;# 
  2092  0498                     	;# 
  2093  0499                     	;# 
  2094  049A                     	;# 
  2095  049B                     	;# 
  2096  049C                     	;# 
  2097  049D                     	;# 
  2098  058C                     	;# 
  2099  058C                     	;# 
  2100  058D                     	;# 
  2101  058E                     	;# 
  2102  058F                     	;# 
  2103  058F                     	;# 
  2104  0590                     	;# 
  2105  0591                     	;# 
  2106  0592                     	;# 
  2107  0593                     	;# 
  2108  059C                     	;# 
  2109  059C                     	;# 
  2110  059D                     	;# 
  2111  059D                     	;# 
  2112  059E                     	;# 
  2113  059F                     	;# 
  2114  060C                     	;# 
  2115  060C                     	;# 
  2116  060D                     	;# 
  2117  060D                     	;# 
  2118  060E                     	;# 
  2119  060F                     	;# 
  2120  0610                     	;# 
  2121  0611                     	;# 
  2122  0612                     	;# 
  2123  0613                     	;# 
  2124  0614                     	;# 
  2125  0616                     	;# 
  2126  0616                     	;# 
  2127  0617                     	;# 
  2128  0617                     	;# 
  2129  0618                     	;# 
  2130  0619                     	;# 
  2131  061A                     	;# 
  2132  061B                     	;# 
  2133  061C                     	;# 
  2134  061D                     	;# 
  2135  061E                     	;# 
  2136  070C                     	;# 
  2137  070D                     	;# 
  2138  070E                     	;# 
  2139  070F                     	;# 
  2140  0710                     	;# 
  2141  0711                     	;# 
  2142  0712                     	;# 
  2143  0713                     	;# 
  2144  0714                     	;# 
  2145  0716                     	;# 
  2146  0717                     	;# 
  2147  0718                     	;# 
  2148  0719                     	;# 
  2149  071A                     	;# 
  2150  071B                     	;# 
  2151  071C                     	;# 
  2152  071D                     	;# 
  2153  071E                     	;# 
  2154  0796                     	;# 
  2155  0797                     	;# 
  2156  0798                     	;# 
  2157  0799                     	;# 
  2158  079A                     	;# 
  2159  079B                     	;# 
  2160  079C                     	;# 
  2161  079D                     	;# 
  2162  080C                     	;# 
  2163  080D                     	;# 
  2164  080E                     	;# 
  2165  080F                     	;# 
  2166  0810                     	;# 
  2167  0811                     	;# 
  2168  0812                     	;# 
  2169  0813                     	;# 
  2170  0814                     	;# 
  2171  081A                     	;# 
  2172  081A                     	;# 
  2173  081B                     	;# 
  2174  081C                     	;# 
  2175  081C                     	;# 
  2176  081D                     	;# 
  2177  081E                     	;# 
  2178  081F                     	;# 
  2179  088C                     	;# 
  2180  088D                     	;# 
  2181  088E                     	;# 
  2182  088F                     	;# 
  2183  0890                     	;# 
  2184  0891                     	;# 
  2185  0892                     	;# 
  2186  0893                     	;# 
  2187  0895                     	;# 
  2188  0896                     	;# 
  2189  0897                     	;# 
  2190  0898                     	;# 
  2191  0899                     	;# 
  2192  089A                     	;# 
  2193  089B                     	;# 
  2194  090C                     	;# 
  2195  090E                     	;# 
  2196  090F                     	;# 
  2197  091F                     	;# 
  2198  098F                     	;# 
  2199  098F                     	;# 
  2200  0990                     	;# 
  2201  0991                     	;# 
  2202  0992                     	;# 
  2203  0993                     	;# 
  2204  0994                     	;# 
  2205  0995                     	;# 
  2206  0996                     	;# 
  2207  0997                     	;# 
  2208  1E0F                     	;# 
  2209  1E10                     	;# 
  2210  1E11                     	;# 
  2211  1E12                     	;# 
  2212  1E13                     	;# 
  2213  1E14                     	;# 
  2214  1E15                     	;# 
  2215  1E16                     	;# 
  2216  1E17                     	;# 
  2217  1E18                     	;# 
  2218  1E19                     	;# 
  2219  1E1A                     	;# 
  2220  1E1B                     	;# 
  2221  1E1C                     	;# 
  2222  1E1D                     	;# 
  2223  1E1E                     	;# 
  2224  1E1F                     	;# 
  2225  1E20                     	;# 
  2226  1E21                     	;# 
  2227  1E22                     	;# 
  2228  1E23                     	;# 
  2229  1E24                     	;# 
  2230  1E25                     	;# 
  2231  1E26                     	;# 
  2232  1E27                     	;# 
  2233  1E28                     	;# 
  2234  1E29                     	;# 
  2235  1E2A                     	;# 
  2236  1E2B                     	;# 
  2237  1E2C                     	;# 
  2238  1E2D                     	;# 
  2239  1E2E                     	;# 
  2240  1E2F                     	;# 
  2241  1E30                     	;# 
  2242  1E31                     	;# 
  2243  1E32                     	;# 
  2244  1E33                     	;# 
  2245  1E34                     	;# 
  2246  1E35                     	;# 
  2247  1E36                     	;# 
  2248  1E37                     	;# 
  2249  1E8F                     	;# 
  2250  1E90                     	;# 
  2251  1E91                     	;# 
  2252  1E92                     	;# 
  2253  1E93                     	;# 
  2254  1E94                     	;# 
  2255  1E95                     	;# 
  2256  1E96                     	;# 
  2257  1E97                     	;# 
  2258  1E9C                     	;# 
  2259  1E9D                     	;# 
  2260  1E9E                     	;# 
  2261  1EA1                     	;# 
  2262  1EA2                     	;# 
  2263  1EA3                     	;# 
  2264  1EA4                     	;# 
  2265  1EA9                     	;# 
  2266  1EAA                     	;# 
  2267  1EB1                     	;# 
  2268  1EB2                     	;# 
  2269  1EB8                     	;# 
  2270  1EB9                     	;# 
  2271  1EBA                     	;# 
  2272  1EBB                     	;# 
  2273  1EBC                     	;# 
  2274  1EBD                     	;# 
  2275  1EBE                     	;# 
  2276  1EC3                     	;# 
  2277  1EC5                     	;# 
  2278  1EC6                     	;# 
  2279  1EC7                     	;# 
  2280  1EC8                     	;# 
  2281  1EC9                     	;# 
  2282  1ECA                     	;# 
  2283  1ECB                     	;# 
  2284  1ECB                     	;# 
  2285  1ECB                     	;# 
  2286  1ECC                     	;# 
  2287  1ECC                     	;# 
  2288  1ECC                     	;# 
  2289  1F10                     	;# 
  2290  1F11                     	;# 
  2291  1F12                     	;# 
  2292  1F14                     	;# 
  2293  1F15                     	;# 
  2294  1F1C                     	;# 
  2295  1F1D                     	;# 
  2296  1F1E                     	;# 
  2297  1F1F                     	;# 
  2298  1F20                     	;# 
  2299  1F21                     	;# 
  2300  1F22                     	;# 
  2301  1F23                     	;# 
  2302  1F24                     	;# 
  2303  1F25                     	;# 
  2304  1F26                     	;# 
  2305  1F27                     	;# 
  2306  1F38                     	;# 
  2307  1F39                     	;# 
  2308  1F3A                     	;# 
  2309  1F3B                     	;# 
  2310  1F3C                     	;# 
  2311  1F3D                     	;# 
  2312  1F3E                     	;# 
  2313  1F3F                     	;# 
  2314  1F43                     	;# 
  2315  1F44                     	;# 
  2316  1F45                     	;# 
  2317  1F46                     	;# 
  2318  1F47                     	;# 
  2319  1F48                     	;# 
  2320  1F49                     	;# 
  2321  1F4A                     	;# 
  2322  1F4E                     	;# 
  2323  1F4F                     	;# 
  2324  1F50                     	;# 
  2325  1F51                     	;# 
  2326  1F52                     	;# 
  2327  1F53                     	;# 
  2328  1F54                     	;# 
  2329  1F55                     	;# 
  2330  1FE4                     	;# 
  2331  1FE5                     	;# 
  2332  1FE6                     	;# 
  2333  1FE7                     	;# 
  2334  1FE8                     	;# 
  2335  1FE8                     	;# 
  2336  1FE9                     	;# 
  2337  1FEA                     	;# 
  2338  1FEB                     	;# 
  2339  1FED                     	;# 
  2340  1FEE                     	;# 
  2341  1FEF                     	;# 
  2342  0000                     	;# 
  2343  0001                     	;# 
  2344  0002                     	;# 
  2345  0003                     	;# 
  2346  0004                     	;# 
  2347  0005                     	;# 
  2348  0006                     	;# 
  2349  0007                     	;# 
  2350  0008                     	;# 
  2351  0009                     	;# 
  2352  000A                     	;# 
  2353  000B                     	;# 
  2354  000C                     	;# 
  2355  000D                     	;# 
  2356  000E                     	;# 
  2357  0012                     	;# 
  2358  0013                     	;# 
  2359  0014                     	;# 
  2360  0018                     	;# 
  2361  0019                     	;# 
  2362  001A                     	;# 
  2363  008C                     	;# 
  2364  008C                     	;# 
  2365  008D                     	;# 
  2366  008E                     	;# 
  2367  008E                     	;# 
  2368  008F                     	;# 
  2369  0090                     	;# 
  2370  0090                     	;# 
  2371  0091                     	;# 
  2372  0092                     	;# 
  2373  0092                     	;# 
  2374  0093                     	;# 
  2375  0094                     	;# 
  2376  0094                     	;# 
  2377  0095                     	;# 
  2378  0096                     	;# 
  2379  0096                     	;# 
  2380  0097                     	;# 
  2381  0098                     	;# 
  2382  0099                     	;# 
  2383  009A                     	;# 
  2384  009B                     	;# 
  2385  009B                     	;# 
  2386  009C                     	;# 
  2387  009D                     	;# 
  2388  009D                     	;# 
  2389  009E                     	;# 
  2390  009F                     	;# 
  2391  010C                     	;# 
  2392  010C                     	;# 
  2393  010D                     	;# 
  2394  010E                     	;# 
  2395  010F                     	;# 
  2396  010F                     	;# 
  2397  0110                     	;# 
  2398  0111                     	;# 
  2399  0112                     	;# 
  2400  0113                     	;# 
  2401  0114                     	;# 
  2402  0115                     	;# 
  2403  0116                     	;# 
  2404  0117                     	;# 
  2405  0118                     	;# 
  2406  0119                     	;# 
  2407  0119                     	;# 
  2408  0119                     	;# 
  2409  011A                     	;# 
  2410  011A                     	;# 
  2411  011A                     	;# 
  2412  011B                     	;# 
  2413  011B                     	;# 
  2414  011B                     	;# 
  2415  011B                     	;# 
  2416  011B                     	;# 
  2417  011C                     	;# 
  2418  011C                     	;# 
  2419  011C                     	;# 
  2420  011D                     	;# 
  2421  011D                     	;# 
  2422  011D                     	;# 
  2423  011E                     	;# 
  2424  011E                     	;# 
  2425  011E                     	;# 
  2426  011F                     	;# 
  2427  011F                     	;# 
  2428  011F                     	;# 
  2429  011F                     	;# 
  2430  011F                     	;# 
  2431  018C                     	;# 
  2432  018D                     	;# 
  2433  018E                     	;# 
  2434  018F                     	;# 
  2435  0190                     	;# 
  2436  0191                     	;# 
  2437  0192                     	;# 
  2438  0196                     	;# 
  2439  0197                     	;# 
  2440  0198                     	;# 
  2441  0199                     	;# 
  2442  019A                     	;# 
  2443  019B                     	;# 
  2444  019C                     	;# 
  2445  020C                     	;# 
  2446  020D                     	;# 
  2447  020E                     	;# 
  2448  020E                     	;# 
  2449  020F                     	;# 
  2450  020F                     	;# 
  2451  0210                     	;# 
  2452  0210                     	;# 
  2453  0211                     	;# 
  2454  0211                     	;# 
  2455  0212                     	;# 
  2456  0213                     	;# 
  2457  0214                     	;# 
  2458  0214                     	;# 
  2459  0215                     	;# 
  2460  0215                     	;# 
  2461  0216                     	;# 
  2462  0216                     	;# 
  2463  0217                     	;# 
  2464  0217                     	;# 
  2465  0218                     	;# 
  2466  0219                     	;# 
  2467  021A                     	;# 
  2468  021A                     	;# 
  2469  021B                     	;# 
  2470  021B                     	;# 
  2471  021C                     	;# 
  2472  021C                     	;# 
  2473  021D                     	;# 
  2474  021D                     	;# 
  2475  021E                     	;# 
  2476  021F                     	;# 
  2477  028C                     	;# 
  2478  028C                     	;# 
  2479  028D                     	;# 
  2480  028D                     	;# 
  2481  028E                     	;# 
  2482  028F                     	;# 
  2483  0290                     	;# 
  2484  0291                     	;# 
  2485  0292                     	;# 
  2486  0292                     	;# 
  2487  0293                     	;# 
  2488  0293                     	;# 
  2489  0294                     	;# 
  2490  0295                     	;# 
  2491  0296                     	;# 
  2492  0297                     	;# 
  2493  0298                     	;# 
  2494  0298                     	;# 
  2495  0299                     	;# 
  2496  0299                     	;# 
  2497  029A                     	;# 
  2498  029B                     	;# 
  2499  029C                     	;# 
  2500  029D                     	;# 
  2501  029F                     	;# 
  2502  030C                     	;# 
  2503  030C                     	;# 
  2504  030D                     	;# 
  2505  030E                     	;# 
  2506  030F                     	;# 
  2507  0310                     	;# 
  2508  0310                     	;# 
  2509  0311                     	;# 
  2510  0312                     	;# 
  2511  0313                     	;# 
  2512  0314                     	;# 
  2513  0314                     	;# 
  2514  0315                     	;# 
  2515  0316                     	;# 
  2516  0317                     	;# 
  2517  0318                     	;# 
  2518  0318                     	;# 
  2519  0319                     	;# 
  2520  031A                     	;# 
  2521  031B                     	;# 
  2522  038C                     	;# 
  2523  038C                     	;# 
  2524  038D                     	;# 
  2525  038E                     	;# 
  2526  0390                     	;# 
  2527  0390                     	;# 
  2528  0391                     	;# 
  2529  0392                     	;# 
  2530  048C                     	;# 
  2531  048C                     	;# 
  2532  048D                     	;# 
  2533  048E                     	;# 
  2534  048F                     	;# 
  2535  048F                     	;# 
  2536  0490                     	;# 
  2537  0491                     	;# 
  2538  0492                     	;# 
  2539  0492                     	;# 
  2540  0493                     	;# 
  2541  0494                     	;# 
  2542  0495                     	;# 
  2543  0495                     	;# 
  2544  0496                     	;# 
  2545  0497                     	;# 
  2546  0498                     	;# 
  2547  0499                     	;# 
  2548  049A                     	;# 
  2549  049B                     	;# 
  2550  049C                     	;# 
  2551  049D                     	;# 
  2552  058C                     	;# 
  2553  058C                     	;# 
  2554  058D                     	;# 
  2555  058E                     	;# 
  2556  058F                     	;# 
  2557  058F                     	;# 
  2558  0590                     	;# 
  2559  0591                     	;# 
  2560  0592                     	;# 
  2561  0593                     	;# 
  2562  059C                     	;# 
  2563  059C                     	;# 
  2564  059D                     	;# 
  2565  059D                     	;# 
  2566  059E                     	;# 
  2567  059F                     	;# 
  2568  060C                     	;# 
  2569  060C                     	;# 
  2570  060D                     	;# 
  2571  060D                     	;# 
  2572  060E                     	;# 
  2573  060F                     	;# 
  2574  0610                     	;# 
  2575  0611                     	;# 
  2576  0612                     	;# 
  2577  0613                     	;# 
  2578  0614                     	;# 
  2579  0616                     	;# 
  2580  0616                     	;# 
  2581  0617                     	;# 
  2582  0617                     	;# 
  2583  0618                     	;# 
  2584  0619                     	;# 
  2585  061A                     	;# 
  2586  061B                     	;# 
  2587  061C                     	;# 
  2588  061D                     	;# 
  2589  061E                     	;# 
  2590  070C                     	;# 
  2591  070D                     	;# 
  2592  070E                     	;# 
  2593  070F                     	;# 
  2594  0710                     	;# 
  2595  0711                     	;# 
  2596  0712                     	;# 
  2597  0713                     	;# 
  2598  0714                     	;# 
  2599  0716                     	;# 
  2600  0717                     	;# 
  2601  0718                     	;# 
  2602  0719                     	;# 
  2603  071A                     	;# 
  2604  071B                     	;# 
  2605  071C                     	;# 
  2606  071D                     	;# 
  2607  071E                     	;# 
  2608  0796                     	;# 
  2609  0797                     	;# 
  2610  0798                     	;# 
  2611  0799                     	;# 
  2612  079A                     	;# 
  2613  079B                     	;# 
  2614  079C                     	;# 
  2615  079D                     	;# 
  2616  080C                     	;# 
  2617  080D                     	;# 
  2618  080E                     	;# 
  2619  080F                     	;# 
  2620  0810                     	;# 
  2621  0811                     	;# 
  2622  0812                     	;# 
  2623  0813                     	;# 
  2624  0814                     	;# 
  2625  081A                     	;# 
  2626  081A                     	;# 
  2627  081B                     	;# 
  2628  081C                     	;# 
  2629  081C                     	;# 
  2630  081D                     	;# 
  2631  081E                     	;# 
  2632  081F                     	;# 
  2633  088C                     	;# 
  2634  088D                     	;# 
  2635  088E                     	;# 
  2636  088F                     	;# 
  2637  0890                     	;# 
  2638  0891                     	;# 
  2639  0892                     	;# 
  2640  0893                     	;# 
  2641  0895                     	;# 
  2642  0896                     	;# 
  2643  0897                     	;# 
  2644  0898                     	;# 
  2645  0899                     	;# 
  2646  089A                     	;# 
  2647  089B                     	;# 
  2648  090C                     	;# 
  2649  090E                     	;# 
  2650  090F                     	;# 
  2651  091F                     	;# 
  2652  098F                     	;# 
  2653  098F                     	;# 
  2654  0990                     	;# 
  2655  0991                     	;# 
  2656  0992                     	;# 
  2657  0993                     	;# 
  2658  0994                     	;# 
  2659  0995                     	;# 
  2660  0996                     	;# 
  2661  0997                     	;# 
  2662  1E0F                     	;# 
  2663  1E10                     	;# 
  2664  1E11                     	;# 
  2665  1E12                     	;# 
  2666  1E13                     	;# 
  2667  1E14                     	;# 
  2668  1E15                     	;# 
  2669  1E16                     	;# 
  2670  1E17                     	;# 
  2671  1E18                     	;# 
  2672  1E19                     	;# 
  2673  1E1A                     	;# 
  2674  1E1B                     	;# 
  2675  1E1C                     	;# 
  2676  1E1D                     	;# 
  2677  1E1E                     	;# 
  2678  1E1F                     	;# 
  2679  1E20                     	;# 
  2680  1E21                     	;# 
  2681  1E22                     	;# 
  2682  1E23                     	;# 
  2683  1E24                     	;# 
  2684  1E25                     	;# 
  2685  1E26                     	;# 
  2686  1E27                     	;# 
  2687  1E28                     	;# 
  2688  1E29                     	;# 
  2689  1E2A                     	;# 
  2690  1E2B                     	;# 
  2691  1E2C                     	;# 
  2692  1E2D                     	;# 
  2693  1E2E                     	;# 
  2694  1E2F                     	;# 
  2695  1E30                     	;# 
  2696  1E31                     	;# 
  2697  1E32                     	;# 
  2698  1E33                     	;# 
  2699  1E34                     	;# 
  2700  1E35                     	;# 
  2701  1E36                     	;# 
  2702  1E37                     	;# 
  2703  1E8F                     	;# 
  2704  1E90                     	;# 
  2705  1E91                     	;# 
  2706  1E92                     	;# 
  2707  1E93                     	;# 
  2708  1E94                     	;# 
  2709  1E95                     	;# 
  2710  1E96                     	;# 
  2711  1E97                     	;# 
  2712  1E9C                     	;# 
  2713  1E9D                     	;# 
  2714  1E9E                     	;# 
  2715  1EA1                     	;# 
  2716  1EA2                     	;# 
  2717  1EA3                     	;# 
  2718  1EA4                     	;# 
  2719  1EA9                     	;# 
  2720  1EAA                     	;# 
  2721  1EB1                     	;# 
  2722  1EB2                     	;# 
  2723  1EB8                     	;# 
  2724  1EB9                     	;# 
  2725  1EBA                     	;# 
  2726  1EBB                     	;# 
  2727  1EBC                     	;# 
  2728  1EBD                     	;# 
  2729  1EBE                     	;# 
  2730  1EC3                     	;# 
  2731  1EC5                     	;# 
  2732  1EC6                     	;# 
  2733  1EC7                     	;# 
  2734  1EC8                     	;# 
  2735  1EC9                     	;# 
  2736  1ECA                     	;# 
  2737  1ECB                     	;# 
  2738  1ECB                     	;# 
  2739  1ECB                     	;# 
  2740  1ECC                     	;# 
  2741  1ECC                     	;# 
  2742  1ECC                     	;# 
  2743  1F10                     	;# 
  2744  1F11                     	;# 
  2745  1F12                     	;# 
  2746  1F14                     	;# 
  2747  1F15                     	;# 
  2748  1F1C                     	;# 
  2749  1F1D                     	;# 
  2750  1F1E                     	;# 
  2751  1F1F                     	;# 
  2752  1F20                     	;# 
  2753  1F21                     	;# 
  2754  1F22                     	;# 
  2755  1F23                     	;# 
  2756  1F24                     	;# 
  2757  1F25                     	;# 
  2758  1F26                     	;# 
  2759  1F27                     	;# 
  2760  1F38                     	;# 
  2761  1F39                     	;# 
  2762  1F3A                     	;# 
  2763  1F3B                     	;# 
  2764  1F3C                     	;# 
  2765  1F3D                     	;# 
  2766  1F3E                     	;# 
  2767  1F3F                     	;# 
  2768  1F43                     	;# 
  2769  1F44                     	;# 
  2770  1F45                     	;# 
  2771  1F46                     	;# 
  2772  1F47                     	;# 
  2773  1F48                     	;# 
  2774  1F49                     	;# 
  2775  1F4A                     	;# 
  2776  1F4E                     	;# 
  2777  1F4F                     	;# 
  2778  1F50                     	;# 
  2779  1F51                     	;# 
  2780  1F52                     	;# 
  2781  1F53                     	;# 
  2782  1F54                     	;# 
  2783  1F55                     	;# 
  2784  1FE4                     	;# 
  2785  1FE5                     	;# 
  2786  1FE6                     	;# 
  2787  1FE7                     	;# 
  2788  1FE8                     	;# 
  2789  1FE8                     	;# 
  2790  1FE9                     	;# 
  2791  1FEA                     	;# 
  2792  1FEB                     	;# 
  2793  1FED                     	;# 
  2794  1FEE                     	;# 
  2795  1FEF                     	;# 
  2796  0000                     	;# 
  2797  0001                     	;# 
  2798  0002                     	;# 
  2799  0003                     	;# 
  2800  0004                     	;# 
  2801  0005                     	;# 
  2802  0006                     	;# 
  2803  0007                     	;# 
  2804  0008                     	;# 
  2805  0009                     	;# 
  2806  000A                     	;# 
  2807  000B                     	;# 
  2808  000C                     	;# 
  2809  000D                     	;# 
  2810  000E                     	;# 
  2811  0012                     	;# 
  2812  0013                     	;# 
  2813  0014                     	;# 
  2814  0018                     	;# 
  2815  0019                     	;# 
  2816  001A                     	;# 
  2817  008C                     	;# 
  2818  008C                     	;# 
  2819  008D                     	;# 
  2820  008E                     	;# 
  2821  008E                     	;# 
  2822  008F                     	;# 
  2823  0090                     	;# 
  2824  0090                     	;# 
  2825  0091                     	;# 
  2826  0092                     	;# 
  2827  0092                     	;# 
  2828  0093                     	;# 
  2829  0094                     	;# 
  2830  0094                     	;# 
  2831  0095                     	;# 
  2832  0096                     	;# 
  2833  0096                     	;# 
  2834  0097                     	;# 
  2835  0098                     	;# 
  2836  0099                     	;# 
  2837  009A                     	;# 
  2838  009B                     	;# 
  2839  009B                     	;# 
  2840  009C                     	;# 
  2841  009D                     	;# 
  2842  009D                     	;# 
  2843  009E                     	;# 
  2844  009F                     	;# 
  2845  010C                     	;# 
  2846  010C                     	;# 
  2847  010D                     	;# 
  2848  010E                     	;# 
  2849  010F                     	;# 
  2850  010F                     	;# 
  2851  0110                     	;# 
  2852  0111                     	;# 
  2853  0112                     	;# 
  2854  0113                     	;# 
  2855  0114                     	;# 
  2856  0115                     	;# 
  2857  0116                     	;# 
  2858  0117                     	;# 
  2859  0118                     	;# 
  2860  0119                     	;# 
  2861  0119                     	;# 
  2862  0119                     	;# 
  2863  011A                     	;# 
  2864  011A                     	;# 
  2865  011A                     	;# 
  2866  011B                     	;# 
  2867  011B                     	;# 
  2868  011B                     	;# 
  2869  011B                     	;# 
  2870  011B                     	;# 
  2871  011C                     	;# 
  2872  011C                     	;# 
  2873  011C                     	;# 
  2874  011D                     	;# 
  2875  011D                     	;# 
  2876  011D                     	;# 
  2877  011E                     	;# 
  2878  011E                     	;# 
  2879  011E                     	;# 
  2880  011F                     	;# 
  2881  011F                     	;# 
  2882  011F                     	;# 
  2883  011F                     	;# 
  2884  011F                     	;# 
  2885  018C                     	;# 
  2886  018D                     	;# 
  2887  018E                     	;# 
  2888  018F                     	;# 
  2889  0190                     	;# 
  2890  0191                     	;# 
  2891  0192                     	;# 
  2892  0196                     	;# 
  2893  0197                     	;# 
  2894  0198                     	;# 
  2895  0199                     	;# 
  2896  019A                     	;# 
  2897  019B                     	;# 
  2898  019C                     	;# 
  2899  020C                     	;# 
  2900  020D                     	;# 
  2901  020E                     	;# 
  2902  020E                     	;# 
  2903  020F                     	;# 
  2904  020F                     	;# 
  2905  0210                     	;# 
  2906  0210                     	;# 
  2907  0211                     	;# 
  2908  0211                     	;# 
  2909  0212                     	;# 
  2910  0213                     	;# 
  2911  0214                     	;# 
  2912  0214                     	;# 
  2913  0215                     	;# 
  2914  0215                     	;# 
  2915  0216                     	;# 
  2916  0216                     	;# 
  2917  0217                     	;# 
  2918  0217                     	;# 
  2919  0218                     	;# 
  2920  0219                     	;# 
  2921  021A                     	;# 
  2922  021A                     	;# 
  2923  021B                     	;# 
  2924  021B                     	;# 
  2925  021C                     	;# 
  2926  021C                     	;# 
  2927  021D                     	;# 
  2928  021D                     	;# 
  2929  021E                     	;# 
  2930  021F                     	;# 
  2931  028C                     	;# 
  2932  028C                     	;# 
  2933  028D                     	;# 
  2934  028D                     	;# 
  2935  028E                     	;# 
  2936  028F                     	;# 
  2937  0290                     	;# 
  2938  0291                     	;# 
  2939  0292                     	;# 
  2940  0292                     	;# 
  2941  0293                     	;# 
  2942  0293                     	;# 
  2943  0294                     	;# 
  2944  0295                     	;# 
  2945  0296                     	;# 
  2946  0297                     	;# 
  2947  0298                     	;# 
  2948  0298                     	;# 
  2949  0299                     	;# 
  2950  0299                     	;# 
  2951  029A                     	;# 
  2952  029B                     	;# 
  2953  029C                     	;# 
  2954  029D                     	;# 
  2955  029F                     	;# 
  2956  030C                     	;# 
  2957  030C                     	;# 
  2958  030D                     	;# 
  2959  030E                     	;# 
  2960  030F                     	;# 
  2961  0310                     	;# 
  2962  0310                     	;# 
  2963  0311                     	;# 
  2964  0312                     	;# 
  2965  0313                     	;# 
  2966  0314                     	;# 
  2967  0314                     	;# 
  2968  0315                     	;# 
  2969  0316                     	;# 
  2970  0317                     	;# 
  2971  0318                     	;# 
  2972  0318                     	;# 
  2973  0319                     	;# 
  2974  031A                     	;# 
  2975  031B                     	;# 
  2976  038C                     	;# 
  2977  038C                     	;# 
  2978  038D                     	;# 
  2979  038E                     	;# 
  2980  0390                     	;# 
  2981  0390                     	;# 
  2982  0391                     	;# 
  2983  0392                     	;# 
  2984  048C                     	;# 
  2985  048C                     	;# 
  2986  048D                     	;# 
  2987  048E                     	;# 
  2988  048F                     	;# 
  2989  048F                     	;# 
  2990  0490                     	;# 
  2991  0491                     	;# 
  2992  0492                     	;# 
  2993  0492                     	;# 
  2994  0493                     	;# 
  2995  0494                     	;# 
  2996  0495                     	;# 
  2997  0495                     	;# 
  2998  0496                     	;# 
  2999  0497                     	;# 
  3000  0498                     	;# 
  3001  0499                     	;# 
  3002  049A                     	;# 
  3003  049B                     	;# 
  3004  049C                     	;# 
  3005  049D                     	;# 
  3006  058C                     	;# 
  3007  058C                     	;# 
  3008  058D                     	;# 
  3009  058E                     	;# 
  3010  058F                     	;# 
  3011  058F                     	;# 
  3012  0590                     	;# 
  3013  0591                     	;# 
  3014  0592                     	;# 
  3015  0593                     	;# 
  3016  059C                     	;# 
  3017  059C                     	;# 
  3018  059D                     	;# 
  3019  059D                     	;# 
  3020  059E                     	;# 
  3021  059F                     	;# 
  3022  060C                     	;# 
  3023  060C                     	;# 
  3024  060D                     	;# 
  3025  060D                     	;# 
  3026  060E                     	;# 
  3027  060F                     	;# 
  3028  0610                     	;# 
  3029  0611                     	;# 
  3030  0612                     	;# 
  3031  0613                     	;# 
  3032  0614                     	;# 
  3033  0616                     	;# 
  3034  0616                     	;# 
  3035  0617                     	;# 
  3036  0617                     	;# 
  3037  0618                     	;# 
  3038  0619                     	;# 
  3039  061A                     	;# 
  3040  061B                     	;# 
  3041  061C                     	;# 
  3042  061D                     	;# 
  3043  061E                     	;# 
  3044  070C                     	;# 
  3045  070D                     	;# 
  3046  070E                     	;# 
  3047  070F                     	;# 
  3048  0710                     	;# 
  3049  0711                     	;# 
  3050  0712                     	;# 
  3051  0713                     	;# 
  3052  0714                     	;# 
  3053  0716                     	;# 
  3054  0717                     	;# 
  3055  0718                     	;# 
  3056  0719                     	;# 
  3057  071A                     	;# 
  3058  071B                     	;# 
  3059  071C                     	;# 
  3060  071D                     	;# 
  3061  071E                     	;# 
  3062  0796                     	;# 
  3063  0797                     	;# 
  3064  0798                     	;# 
  3065  0799                     	;# 
  3066  079A                     	;# 
  3067  079B                     	;# 
  3068  079C                     	;# 
  3069  079D                     	;# 
  3070  080C                     	;# 
  3071  080D                     	;# 
  3072  080E                     	;# 
  3073  080F                     	;# 
  3074  0810                     	;# 
  3075  0811                     	;# 
  3076  0812                     	;# 
  3077  0813                     	;# 
  3078  0814                     	;# 
  3079  081A                     	;# 
  3080  081A                     	;# 
  3081  081B                     	;# 
  3082  081C                     	;# 
  3083  081C                     	;# 
  3084  081D                     	;# 
  3085  081E                     	;# 
  3086  081F                     	;# 
  3087  088C                     	;# 
  3088  088D                     	;# 
  3089  088E                     	;# 
  3090  088F                     	;# 
  3091  0890                     	;# 
  3092  0891                     	;# 
  3093  0892                     	;# 
  3094  0893                     	;# 
  3095  0895                     	;# 
  3096  0896                     	;# 
  3097  0897                     	;# 
  3098  0898                     	;# 
  3099  0899                     	;# 
  3100  089A                     	;# 
  3101  089B                     	;# 
  3102  090C                     	;# 
  3103  090E                     	;# 
  3104  090F                     	;# 
  3105  091F                     	;# 
  3106  098F                     	;# 
  3107  098F                     	;# 
  3108  0990                     	;# 
  3109  0991                     	;# 
  3110  0992                     	;# 
  3111  0993                     	;# 
  3112  0994                     	;# 
  3113  0995                     	;# 
  3114  0996                     	;# 
  3115  0997                     	;# 
  3116  1E0F                     	;# 
  3117  1E10                     	;# 
  3118  1E11                     	;# 
  3119  1E12                     	;# 
  3120  1E13                     	;# 
  3121  1E14                     	;# 
  3122  1E15                     	;# 
  3123  1E16                     	;# 
  3124  1E17                     	;# 
  3125  1E18                     	;# 
  3126  1E19                     	;# 
  3127  1E1A                     	;# 
  3128  1E1B                     	;# 
  3129  1E1C                     	;# 
  3130  1E1D                     	;# 
  3131  1E1E                     	;# 
  3132  1E1F                     	;# 
  3133  1E20                     	;# 
  3134  1E21                     	;# 
  3135  1E22                     	;# 
  3136  1E23                     	;# 
  3137  1E24                     	;# 
  3138  1E25                     	;# 
  3139  1E26                     	;# 
  3140  1E27                     	;# 
  3141  1E28                     	;# 
  3142  1E29                     	;# 
  3143  1E2A                     	;# 
  3144  1E2B                     	;# 
  3145  1E2C                     	;# 
  3146  1E2D                     	;# 
  3147  1E2E                     	;# 
  3148  1E2F                     	;# 
  3149  1E30                     	;# 
  3150  1E31                     	;# 
  3151  1E32                     	;# 
  3152  1E33                     	;# 
  3153  1E34                     	;# 
  3154  1E35                     	;# 
  3155  1E36                     	;# 
  3156  1E37                     	;# 
  3157  1E8F                     	;# 
  3158  1E90                     	;# 
  3159  1E91                     	;# 
  3160  1E92                     	;# 
  3161  1E93                     	;# 
  3162  1E94                     	;# 
  3163  1E95                     	;# 
  3164  1E96                     	;# 
  3165  1E97                     	;# 
  3166  1E9C                     	;# 
  3167  1E9D                     	;# 
  3168  1E9E                     	;# 
  3169  1EA1                     	;# 
  3170  1EA2                     	;# 
  3171  1EA3                     	;# 
  3172  1EA4                     	;# 
  3173  1EA9                     	;# 
  3174  1EAA                     	;# 
  3175  1EB1                     	;# 
  3176  1EB2                     	;# 
  3177  1EB8                     	;# 
  3178  1EB9                     	;# 
  3179  1EBA                     	;# 
  3180  1EBB                     	;# 
  3181  1EBC                     	;# 
  3182  1EBD                     	;# 
  3183  1EBE                     	;# 
  3184  1EC3                     	;# 
  3185  1EC5                     	;# 
  3186  1EC6                     	;# 
  3187  1EC7                     	;# 
  3188  1EC8                     	;# 
  3189  1EC9                     	;# 
  3190  1ECA                     	;# 
  3191  1ECB                     	;# 
  3192  1ECB                     	;# 
  3193  1ECB                     	;# 
  3194  1ECC                     	;# 
  3195  1ECC                     	;# 
  3196  1ECC                     	;# 
  3197  1F10                     	;# 
  3198  1F11                     	;# 
  3199  1F12                     	;# 
  3200  1F14                     	;# 
  3201  1F15                     	;# 
  3202  1F1C                     	;# 
  3203  1F1D                     	;# 
  3204  1F1E                     	;# 
  3205  1F1F                     	;# 
  3206  1F20                     	;# 
  3207  1F21                     	;# 
  3208  1F22                     	;# 
  3209  1F23                     	;# 
  3210  1F24                     	;# 
  3211  1F25                     	;# 
  3212  1F26                     	;# 
  3213  1F27                     	;# 
  3214  1F38                     	;# 
  3215  1F39                     	;# 
  3216  1F3A                     	;# 
  3217  1F3B                     	;# 
  3218  1F3C                     	;# 
  3219  1F3D                     	;# 
  3220  1F3E                     	;# 
  3221  1F3F                     	;# 
  3222  1F43                     	;# 
  3223  1F44                     	;# 
  3224  1F45                     	;# 
  3225  1F46                     	;# 
  3226  1F47                     	;# 
  3227  1F48                     	;# 
  3228  1F49                     	;# 
  3229  1F4A                     	;# 
  3230  1F4E                     	;# 
  3231  1F4F                     	;# 
  3232  1F50                     	;# 
  3233  1F51                     	;# 
  3234  1F52                     	;# 
  3235  1F53                     	;# 
  3236  1F54                     	;# 
  3237  1F55                     	;# 
  3238  1FE4                     	;# 
  3239  1FE5                     	;# 
  3240  1FE6                     	;# 
  3241  1FE7                     	;# 
  3242  1FE8                     	;# 
  3243  1FE8                     	;# 
  3244  1FE9                     	;# 
  3245  1FEA                     	;# 
  3246  1FEB                     	;# 
  3247  1FED                     	;# 
  3248  1FEE                     	;# 
  3249  1FEF                     	;# 
  3250                           
  3251                           	psect	stringtext1
  3252  0168                     __pstringtext1:	
  3253  0168                     _charTable:	
  3254  0168  3400               	retlw	0
  3255  0169  3482               	retlw	130
  3256  016A  3421               	retlw	33
  3257  016B  3400               	retlw	0
  3258  016C  3400               	retlw	0
  3259  016D  3400               	retlw	0
  3260  016E  3400               	retlw	0
  3261  016F  3402               	retlw	2
  3262  0170  3439               	retlw	57
  3263  0171  340F               	retlw	15
  3264  0172  3400               	retlw	0
  3265  0173  3400               	retlw	0
  3266  0174  3400               	retlw	0
  3267  0175  3440               	retlw	64
  3268  0176  3480               	retlw	128
  3269  0177  3400               	retlw	0
  3270  0178  343F               	retlw	63
  3271  0179  3406               	retlw	6
  3272  017A  345B               	retlw	91
  3273  017B  344F               	retlw	79
  3274  017C  3466               	retlw	102
  3275  017D  346D               	retlw	109
  3276  017E  347D               	retlw	125
  3277  017F  3407               	retlw	7
  3278  0180  347F               	retlw	127
  3279  0181  346F               	retlw	111
  3280  0182  3400               	retlw	0
  3281  0183  3400               	retlw	0
  3282  0184  3400               	retlw	0
  3283  0185  3448               	retlw	72
  3284  0186  3400               	retlw	0
  3285  0187  3453               	retlw	83
  3286  0188  3400               	retlw	0
  3287  0189  3477               	retlw	119
  3288  018A  347C               	retlw	124
  3289  018B  3439               	retlw	57
  3290  018C  345E               	retlw	94
  3291  018D  3479               	retlw	121
  3292  018E  3471               	retlw	113
  3293  018F  346F               	retlw	111
  3294  0190  3476               	retlw	118
  3295  0191  3406               	retlw	6
  3296  0192  341E               	retlw	30
  3297  0193  3400               	retlw	0
  3298  0194  3438               	retlw	56
  3299  0195  3400               	retlw	0
  3300  0196  3454               	retlw	84
  3301  0197  343F               	retlw	63
  3302  0198  3473               	retlw	115
  3303  0199  3467               	retlw	103
  3304  019A  3450               	retlw	80
  3305  019B  346D               	retlw	109
  3306  019C  3478               	retlw	120
  3307  019D  343E               	retlw	62
  3308  019E  3400               	retlw	0
  3309  019F  3400               	retlw	0
  3310  01A0  3400               	retlw	0
  3311  01A1  346E               	retlw	110
  3312  01A2  3400               	retlw	0
  3313  01A3  3439               	retlw	57
  3314  01A4  3400               	retlw	0
  3315  01A5  340F               	retlw	15
  3316  01A6  3400               	retlw	0
  3317  01A7  3408               	retlw	8
  3318  01A8  3463               	retlw	99
  3319  01A9  345F               	retlw	95
  3320  01AA  347C               	retlw	124
  3321  01AB  3458               	retlw	88
  3322  01AC  345E               	retlw	94
  3323  01AD  347B               	retlw	123
  3324  01AE  3471               	retlw	113
  3325  01AF  346F               	retlw	111
  3326  01B0  3474               	retlw	116
  3327  01B1  3402               	retlw	2
  3328  01B2  341E               	retlw	30
  3329  01B3  3400               	retlw	0
  3330  01B4  3406               	retlw	6
  3331  01B5  3400               	retlw	0
  3332  01B6  3454               	retlw	84
  3333  01B7  345C               	retlw	92
  3334  01B8  3473               	retlw	115
  3335  01B9  3467               	retlw	103
  3336  01BA  3450               	retlw	80
  3337  01BB  346D               	retlw	109
  3338  01BC  3478               	retlw	120
  3339  01BD  341C               	retlw	28
  3340  01BE  3400               	retlw	0
  3341  01BF  3400               	retlw	0
  3342  01C0  3400               	retlw	0
  3343  01C1  346E               	retlw	110
  3344  01C2  3400               	retlw	0
  3345  01C3  3439               	retlw	57
  3346  01C4  3430               	retlw	48
  3347  01C5  340F               	retlw	15
  3348  01C6  3400               	retlw	0
  3349  01C7  3400               	retlw	0
  3350  01C8                     __end_of_charTable:	
  3351  0014                     _TRISC	set	20
  3352  0013                     _TRISB	set	19
  3353  0012                     _TRISA	set	18
  3354  001A                     _LATC	set	26
  3355  0019                     _LATB	set	25
  3356  0018                     _LATA	set	24
  3357  000B                     _INTCONbits	set	11
  3358  018C                     _SSP1BUF	set	396
  3359  0191                     _SSP1CON2bits	set	401
  3360  0190                     _SSP1CON1bits	set	400
  3361  018D                     _SSP1ADD	set	397
  3362  0192                     _SSP1CON3	set	402
  3363  0190                     _SSP1CON1	set	400
  3364  018F                     _SSP1STAT	set	399
  3365  070F                     _PIR3bits	set	1807
  3366  0719                     _PIE3bits	set	1817
  3367  079D                     _PMD7	set	1949
  3368  079C                     _PMD6	set	1948
  3369  079B                     _PMD5	set	1947
  3370  079A                     _PMD4	set	1946
  3371  0799                     _PMD3	set	1945
  3372  0798                     _PMD2	set	1944
  3373  0797                     _PMD1	set	1943
  3374  0796                     _PMD0	set	1942
  3375  0892                     _OSCTUNE	set	2194
  3376  0893                     _OSCFRQ	set	2195
  3377  0891                     _OSCEN	set	2193
  3378  088F                     _OSCCON3	set	2191
  3379  088D                     _OSCCON1	set	2189
  3380  1EC6                     _SSP1DATPPS	set	7878
  3381  1EC5                     _SSP1CLKPPS	set	7877
  3382  1F15                     _RA5PPS	set	7957
  3383  1F14                     _RA4PPS	set	7956
  3384  1F51                     _SLRCONC	set	8017
  3385  1F46                     _SLRCONB	set	8006
  3386  1F3B                     _SLRCONA	set	7995
  3387  1F50                     _ODCONC	set	8016
  3388  1F45                     _ODCONB	set	8005
  3389  1F3A                     _ODCONA	set	7994
  3390  1F4F                     _WPUC	set	8015
  3391  1F39                     _WPUA	set	7993
  3392  1F44                     _WPUB	set	8004
  3393  1F38                     _ANSELA	set	7992
  3394  1F43                     _ANSELB	set	8003
  3395  1F4E                     _ANSELC	set	8014
  3396  01C8                     STR_6:	
  3397  01C8  3425               	retlw	37	;'%'
  3398  01C9  3463               	retlw	99	;'c'
  3399  01CA  3425               	retlw	37	;'%'
  3400  01CB  3463               	retlw	99	;'c'
  3401  01CC  3425               	retlw	37	;'%'
  3402  01CD  3463               	retlw	99	;'c'
  3403  01CE  3425               	retlw	37	;'%'
  3404  01CF  3463               	retlw	99	;'c'
  3405  01D0  340D               	retlw	13
  3406  01D1  3400               	retlw	0
  3407                           
  3408                           	psect	stringtext2
  3409  0324                     __pstringtext2:	
  3410  0324                     STR_7:	
  3411  0324  3425               	retlw	37	;'%'
  3412  0325  3463               	retlw	99	;'c'
  3413  0326  3425               	retlw	37	;'%'
  3414  0327  3463               	retlw	99	;'c'
  3415  0328  3425               	retlw	37	;'%'
  3416  0329  3463               	retlw	99	;'c'
  3417  032A  3420               	retlw	32	;' '
  3418  032B  340D               	retlw	13
  3419  032C  3400               	retlw	0
  3420                           
  3421                           	psect	stringtext3
  3422  032D                     __pstringtext3:	
  3423  032D                     STR_5:	
  3424  032D  3420               	retlw	32	;' '
  3425  032E  3425               	retlw	37	;'%'
  3426  032F  3463               	retlw	99	;'c'
  3427  0330  3425               	retlw	37	;'%'
  3428  0331  3463               	retlw	99	;'c'
  3429  0332  3425               	retlw	37	;'%'
  3430  0333  3463               	retlw	99	;'c'
  3431  0334  340D               	retlw	13
  3432  0335  3400               	retlw	0
  3433                           
  3434                           	psect	stringtext4
  3435  033F                     __pstringtext4:	
  3436  033F                     STR_8:	
  3437  033F  3425               	retlw	37	;'%'
  3438  0340  3463               	retlw	99	;'c'
  3439  0341  3425               	retlw	37	;'%'
  3440  0342  3463               	retlw	99	;'c'
  3441  0343  3420               	retlw	32	;' '
  3442  0344  3420               	retlw	32	;' '
  3443  0345  340D               	retlw	13
  3444  0346  3400               	retlw	0
  3445                           
  3446                           	psect	stringtext5
  3447  0347                     __pstringtext5:	
  3448  0347                     STR_4:	
  3449  0347  3420               	retlw	32	;' '
  3450  0348  3420               	retlw	32	;' '
  3451  0349  3425               	retlw	37	;'%'
  3452  034A  3463               	retlw	99	;'c'
  3453  034B  3425               	retlw	37	;'%'
  3454  034C  3463               	retlw	99	;'c'
  3455  034D  340D               	retlw	13
  3456  034E  3400               	retlw	0
  3457                           
  3458                           	psect	stringtext6
  3459  034F                     __pstringtext6:	
  3460  034F                     STR_9:	
  3461  034F  3425               	retlw	37	;'%'
  3462  0350  3463               	retlw	99	;'c'
  3463  0351  3420               	retlw	32	;' '
  3464  0352  3420               	retlw	32	;' '
  3465  0353  3420               	retlw	32	;' '
  3466  0354  340D               	retlw	13
  3467  0355  3400               	retlw	0
  3468                           
  3469                           	psect	stringtext7
  3470  0356                     __pstringtext7:	
  3471  0356                     STR_3:	
  3472  0356  3420               	retlw	32	;' '
  3473  0357  3420               	retlw	32	;' '
  3474  0358  3420               	retlw	32	;' '
  3475  0359  3425               	retlw	37	;'%'
  3476  035A  3463               	retlw	99	;'c'
  3477  035B  340D               	retlw	13
  3478  035C  3400               	retlw	0
  3479                           
  3480                           	psect	stringtext8
  3481  035D                     __pstringtext8:	
  3482  035D                     STR_10:	
  3483  035D  3420               	retlw	32	;' '
  3484  035E  3420               	retlw	32	;' '
  3485  035F  3420               	retlw	32	;' '
  3486  0360  3420               	retlw	32	;' '
  3487  0361  340D               	retlw	13
  3488  0362  3400               	retlw	0
  3489                           
  3490                           	psect	stringtext9
  3491  0369                     __pstringtext9:	
  3492  0369                     STR_1:	
  3493  0369  3420               	retlw	32	;' '
  3494  036A  3420               	retlw	32	;' '
  3495  036B  3420               	retlw	32	;' '
  3496  036C  3420               	retlw	32	;' '
  3497  036D  3400               	retlw	0
  3498                           
  3499                           	psect	stringtext10
  3500  0000                     __pstringtext10:	
  3501  0361                     
  3502                           ; #config settings
  3503  0000                     
  3504                           	psect	cinit
  3505  0019                     start_initialization:	
  3506  0019                     __initialization:	
  3507                           
  3508                           ; Clear objects allocated to COMMON
  3509  0019  01F0               	clrf	__pbssCOMMON& (0+127)
  3510  001A  01F1               	clrf	(__pbssCOMMON+1)& (0+127)
  3511  001B  01F2               	clrf	(__pbssCOMMON+2)& (0+127)
  3512  001C  01F3               	clrf	(__pbssCOMMON+3)& (0+127)
  3513  001D  01F4               	clrf	(__pbssCOMMON+4)& (0+127)
  3514  001E  01F5               	clrf	(__pbssCOMMON+5)& (0+127)
  3515                           
  3516                           ; Clear objects allocated to BANK0
  3517  001F  3020               	movlw	low __pbssBANK0
  3518  0020  0084               	movwf	4
  3519  0021  3000               	movlw	high __pbssBANK0
  3520  0022  0085               	movwf	5
  3521  0023  303C               	movlw	60
  3522  0024  3183  2363         	fcall	clear_ram0
  3523  0026                     end_of_initialization:	
  3524                           ;End of C runtime variable initialization code
  3525                           
  3526  0026                     __end_of__initialization:	
  3527  0026  107E               	bcf	int$flags,0	;clear compiler interrupt flag (level 1)
  3528  0027  0140               	movlb	0
  3529  0028  3181  29D2         	ljmp	_main	;jump to C main() function
  3530                           
  3531                           	psect	bssCOMMON
  3532  0070                     __pbssCOMMON:	
  3533  0070                     _p_i2c1_current:	
  3534  0070                     	ds	1
  3535  0071                     _p_i2c1_trb_current:	
  3536  0071                     	ds	1
  3537  0072                     _i2c1_trb_count:	
  3538  0072                     	ds	1
  3539  0073                     _i2c1_state:	
  3540  0073                     	ds	1
  3541  0074                     I2C1_ISR@i2c_address:	
  3542  0074                     	ds	2
  3543                           
  3544                           	psect	bssBANK0
  3545  0020                     __pbssBANK0:	
  3546  0020                     _i2c1_object:	
  3547  0020                     	ds	5
  3548  0025                     _nout:	
  3549  0025                     	ds	2
  3550  0027                     _width:	
  3551  0027                     	ds	2
  3552  0029                     _prec:	
  3553  0029                     	ds	2
  3554  002B                     _flags:	
  3555  002B                     	ds	2
  3556  002D                     _position:	
  3557  002D                     	ds	1
  3558  002E                     I2C1_ISR@i2c_10bit_address_restart:	
  3559  002E                     	ds	1
  3560  002F                     I2C1_ISR@i2c_bytes_left:	
  3561  002F                     	ds	1
  3562  0030                     I2C1_ISR@pi2c_buf_ptr:	
  3563  0030                     	ds	1
  3564  0031                     _dbuf:	
  3565  0031                     	ds	32
  3566  0051                     I2C1_MasterRead@trBlock:	
  3567  0051                     	ds	4
  3568  0055                     I2C1_MasterWrite@trBlock:	
  3569  0055                     	ds	4
  3570  0059                     _i2c1_tr_queue:	
  3571  0059                     	ds	3
  3572                           
  3573                           	psect	clrtext
  3574  0363                     clear_ram0:	
  3575                           ;	Called with FSR0 containing the base address, and
  3576                           ;	WREG with the size to clear
  3577                           
  3578  0363  0064               	clrwdt	;clear the watchdog before getting into this loop
  3579  0364                     clrloop0:	
  3580  0364  0180               	clrf	0	;clear RAM location pointed to by FSR
  3581  0365  3101               	addfsr 0,1
  3582  0366  0B89               	decfsz	9,f	;Have we reached the end of clearing yet?
  3583  0367  2B64               	goto	clrloop0	;have we reached the end yet?
  3584  0368  3400               	retlw	0	;all done for this memory range, return
  3585                           
  3586                           	psect	cstackBANK1
  3587  00A0                     __pcstackBANK1:	
  3588  00A0                     main@dummy:	
  3589                           
  3590                           ; 2 bytes @ 0x0
  3591  00A0                     	ds	2
  3592  00A2                     main@foundAddress:	
  3593                           
  3594                           ; 1 bytes @ 0x2
  3595  00A2                     	ds	1
  3596  00A3                     main@dataToSend:	
  3597                           
  3598                           ; 1 bytes @ 0x3
  3599  00A3                     	ds	1
  3600  00A4                     main@i:	
  3601                           
  3602                           ; 2 bytes @ 0x4
  3603  00A4                     	ds	2
  3604  00A6                     main@status:	
  3605                           
  3606                           ; 1 bytes @ 0x6
  3607  00A6                     	ds	1
  3608                           
  3609                           	psect	cstackCOMMON
  3610  0076                     __pcstackCOMMON:	
  3611  0076                     ?_I2C1_BusCollisionISR:	
  3612  0076                     ??_I2C1_BusCollisionISR:	
  3613                           ; 1 bytes @ 0x0
  3614                           
  3615  0076                     ?_I2C1_ISR:	
  3616                           ; 1 bytes @ 0x0
  3617                           
  3618  0076                     ?_PMD_Initialize:	
  3619                           ; 1 bytes @ 0x0
  3620                           
  3621  0076                     ?_PIN_MANAGER_Initialize:	
  3622                           ; 1 bytes @ 0x0
  3623                           
  3624  0076                     ?_OSCILLATOR_Initialize:	
  3625                           ; 1 bytes @ 0x0
  3626                           
  3627  0076                     ?_I2C1_Initialize:	
  3628                           ; 1 bytes @ 0x0
  3629                           
  3630  0076                     ?_I2C1_Stop:	
  3631                           ; 1 bytes @ 0x0
  3632                           
  3633  0076                     ??_I2C1_Stop:	
  3634                           ; 1 bytes @ 0x0
  3635                           
  3636  0076                     ?_I2C1_FunctionComplete:	
  3637                           ; 1 bytes @ 0x0
  3638                           
  3639  0076                     ??_I2C1_FunctionComplete:	
  3640                           ; 1 bytes @ 0x0
  3641                           
  3642  0076                     ?_INTERRUPT_InterruptManager:	
  3643                           ; 1 bytes @ 0x0
  3644                           
  3645  0076                     ?_SYSTEM_Initialize:	
  3646                           ; 1 bytes @ 0x0
  3647                           
  3648  0076                     ?_I2C1_WaitForLastPacketToComplete:	
  3649                           ; 1 bytes @ 0x0
  3650                           
  3651  0076                     ?_main:	
  3652                           ; 1 bytes @ 0x0
  3653                           
  3654                           
  3655                           ; 1 bytes @ 0x0
  3656  0076                     	ds	1
  3657  0077                     I2C1_Stop@completion_code:	
  3658                           
  3659                           ; 1 bytes @ 0x1
  3660  0077                     	ds	1
  3661  0078                     ??_I2C1_ISR:	
  3662                           
  3663                           ; 1 bytes @ 0x2
  3664  0078                     	ds	4
  3665  007C                     ??_INTERRUPT_InterruptManager:	
  3666                           
  3667                           	psect	cstackBANK0
  3668  005C                     __pcstackBANK0:	
  3669                           ; 1 bytes @ 0x6
  3670                           
  3671  005C                     ??_PMD_Initialize:	
  3672  005C                     ??_PIN_MANAGER_Initialize:	
  3673                           ; 1 bytes @ 0x0
  3674                           
  3675  005C                     ??_OSCILLATOR_Initialize:	
  3676                           ; 1 bytes @ 0x0
  3677                           
  3678  005C                     ??_I2C1_Initialize:	
  3679                           ; 1 bytes @ 0x0
  3680                           
  3681  005C                     ?_I2C1_MasterWriteTRBBuild:	
  3682                           ; 1 bytes @ 0x0
  3683                           
  3684  005C                     ?_I2C1_MasterTRBInsert:	
  3685                           ; 1 bytes @ 0x0
  3686                           
  3687  005C                     ??_I2C1_WaitForLastPacketToComplete:	
  3688                           ; 1 bytes @ 0x0
  3689                           
  3690  005C                     I2C1_MasterTRBInsert@ptrb_list:	
  3691                           ; 1 bytes @ 0x0
  3692                           
  3693  005C                     I2C1_MasterWriteTRBBuild@pdata:	
  3694                           ; 1 bytes @ 0x0
  3695                           
  3696                           
  3697                           ; 1 bytes @ 0x0
  3698  005C                     	ds	1
  3699  005D                     ??_SYSTEM_Initialize:	
  3700  005D                     I2C1_MasterTRBInsert@pflag:	
  3701                           ; 1 bytes @ 0x1
  3702                           
  3703  005D                     I2C1_MasterWriteTRBBuild@length:	
  3704                           ; 1 bytes @ 0x1
  3705                           
  3706                           
  3707                           ; 1 bytes @ 0x1
  3708  005D                     	ds	1
  3709  005E                     ??_I2C1_MasterTRBInsert:	
  3710  005E                     I2C1_MasterWriteTRBBuild@address:	
  3711                           ; 1 bytes @ 0x2
  3712                           
  3713                           
  3714                           ; 2 bytes @ 0x2
  3715  005E                     	ds	1
  3716  005F                     I2C1_MasterTRBInsert@count:	
  3717                           
  3718                           ; 1 bytes @ 0x3
  3719  005F                     	ds	1
  3720  0060                     ??_I2C1_MasterWriteTRBBuild:	
  3721                           
  3722                           ; 1 bytes @ 0x4
  3723  0060                     	ds	2
  3724  0062                     I2C1_MasterWriteTRBBuild@ptrb:	
  3725                           
  3726                           ; 1 bytes @ 0x6
  3727  0062                     	ds	1
  3728  0063                     ?_I2C1_MasterWrite:	
  3729  0063                     I2C1_MasterWrite@length:	
  3730                           ; 1 bytes @ 0x7
  3731                           
  3732                           
  3733                           ; 1 bytes @ 0x7
  3734  0063                     	ds	1
  3735  0064                     I2C1_MasterWrite@address:	
  3736                           
  3737                           ; 2 bytes @ 0x8
  3738  0064                     	ds	2
  3739  0066                     I2C1_MasterWrite@pflag:	
  3740                           
  3741                           ; 1 bytes @ 0xA
  3742  0066                     	ds	1
  3743  0067                     ??_I2C1_MasterWrite:	
  3744                           
  3745                           ; 1 bytes @ 0xB
  3746  0067                     	ds	2
  3747  0069                     I2C1_MasterWrite@pdata:	
  3748                           
  3749                           ; 1 bytes @ 0xD
  3750  0069                     	ds	1
  3751  006A                     ??_main:	
  3752                           
  3753                           ; 1 bytes @ 0xE
  3754  006A                     	ds	1
  3755                           
  3756                           	psect	maintext
  3757  01D2                     __pmaintext:	
  3758 ;;
  3759 ;;Main: autosize = 0, tempsize = 1, incstack = 0, save=0
  3760 ;;
  3761 ;; *************** function _main *****************
  3762 ;; Defined at:
  3763 ;;		line 51 in file "main.c"
  3764 ;; Parameters:    Size  Location     Type
  3765 ;;		None
  3766 ;; Auto vars:     Size  Location     Type
  3767 ;;  dummy           2    0[BANK1 ] volatile int 
  3768 ;;  foundAddress    1    2[BANK1 ] volatile unsigned char 
  3769 ;;  status          1    6[BANK1 ] enum E10868
  3770 ;;  dataToSend      1    3[BANK1 ] unsigned char 
  3771 ;;  i               2    4[BANK1 ] int 
  3772 ;; Return value:  Size  Location     Type
  3773 ;;                  1    wreg      void 
  3774 ;; Registers used:
  3775 ;;		wreg, fsr1l, fsr1h, status,2, status,0, pclath, cstack
  3776 ;; Tracked objects:
  3777 ;;		On entry : B3F/0
  3778 ;;		On exit  : 0/0
  3779 ;;		Unchanged: 0/0
  3780 ;; Data sizes:     COMMON   BANK0   BANK1   BANK2   BANK3   BANK4   BANK5   BANK6   BANK7   BANK8   BANK9  BANK10  BANK1
      +1  BANK12  BANK13  BANK14  BANK15  BANK16  BANK17  BANK18  BANK19  BANK20  BANK21  BANK22  BANK23  BANK24  BANK25
  3781 ;;      Params:         0       0       0       0       0       0       0       0       0       0       0       0       
      +0       0       0       0       0       0       0       0       0       0       0       0       0       0       0
  3782 ;;      Locals:         0       0       7       0       0       0       0       0       0       0       0       0       
      +0       0       0       0       0       0       0       0       0       0       0       0       0       0       0
  3783 ;;      Temps:          0       1       0       0       0       0       0       0       0       0       0       0       
      +0       0       0       0       0       0       0       0       0       0       0       0       0       0       0
  3784 ;;      Totals:         0       1       7       0       0       0       0       0       0       0       0       0       
      +0       0       0       0       0       0       0       0       0       0       0       0       0       0       0
  3785 ;;Total ram usage:        8 bytes
  3786 ;; Hardware stack levels required when called:    6
  3787 ;; This function calls:
  3788 ;;		_I2C1_MasterWrite
  3789 ;;		_SYSTEM_Initialize
  3790 ;; This function is called by:
  3791 ;;		Startup code after reset
  3792 ;; This function uses a non-reentrant model
  3793 ;;
  3794                           
  3795                           
  3796                           ;psect for function _main
  3797  01D2                     _main:	
  3798                           
  3799                           ;main.c: 54:     SYSTEM_Initialize();
  3800                           
  3801                           ;incstack = 0
  3802                           ; Regs used in _main: [wreg+fsr1l+fsr1h+status,2+status,0+pclath+cstack]
  3803  01D2  3183  230E  3181   	fcall	_SYSTEM_Initialize
  3804                           
  3805                           ;main.c: 61:     (INTCONbits.GIE = 1);
  3806  01D5  178B               	bsf	11,7	;volatile
  3807                           
  3808                           ;main.c: 64:     (INTCONbits.PEIE = 1);
  3809  01D6  170B               	bsf	11,6	;volatile
  3810                           
  3811                           ;main.c: 78:     for (int i = 0; i < 128; i++) {
  3812  01D7  0141               	movlb	1	; select bank1
  3813  01D8  01A4               	clrf	main@i^(0+128)
  3814  01D9  01A5               	clrf	(main@i+1)^(0+128)
  3815  01DA                     l2115:	
  3816                           
  3817                           ;main.c: 79:         I2C1_MESSAGE_STATUS status = I2C1_MESSAGE_PENDING;
  3818  01DA  3002               	movlw	2
  3819  01DB  0140               	movlb	0	; select bank0
  3820  01DC  00EA               	movwf	??_main
  3821  01DD  086A               	movf	??_main,w
  3822  01DE  0141               	movlb	1	; select bank1
  3823  01DF  00A6               	movwf	main@status^(0+128)
  3824                           
  3825                           ;main.c: 80:         uint8_t dataToSend = 0x00;
  3826  01E0  01A3               	clrf	main@dataToSend^(0+128)
  3827                           
  3828                           ;main.c: 81:         I2C1_MasterWrite(&dataToSend, 1, i, &status);
  3829  01E1  0140               	movlb	0	; select bank0
  3830  01E2  01E3               	clrf	I2C1_MasterWrite@length
  3831  01E3  0AE3               	incf	I2C1_MasterWrite@length,f
  3832  01E4  0141               	movlb	1	; select bank1
  3833  01E5  0825               	movf	(main@i+1)^(0+128),w
  3834  01E6  0140               	movlb	0	; select bank0
  3835  01E7  00E5               	movwf	I2C1_MasterWrite@address+1
  3836  01E8  0141               	movlb	1	; select bank1
  3837  01E9  0824               	movf	main@i^(0+128),w
  3838  01EA  0140               	movlb	0	; select bank0
  3839  01EB  00E4               	movwf	I2C1_MasterWrite@address
  3840  01EC  30A6               	movlw	(low (main@status| 0))& (0+255)
  3841  01ED  00EA               	movwf	??_main
  3842  01EE  086A               	movf	??_main,w
  3843  01EF  00E6               	movwf	I2C1_MasterWrite@pflag
  3844  01F0  30A3               	movlw	(low (main@dataToSend| 0))& (0+255)
  3845  01F1  3182  2287  3181   	fcall	_I2C1_MasterWrite
  3846  01F4                     l2121:	
  3847                           ;main.c: 82:         while (status == I2C1_MESSAGE_PENDING);
  3848                           
  3849  01F4  3002               	movlw	2
  3850  01F5  0141               	movlb	1	; select bank1
  3851  01F6  0626               	xorwf	main@status^(0+128),w
  3852  01F7  1903               	btfsc	3,2
  3853  01F8  29F4               	goto	l2121
  3854                           
  3855                           ;main.c: 84:         if (status == I2C1_MESSAGE_COMPLETE) {
  3856  01F9  0826               	movf	main@status^(0+128),w
  3857  01FA  1D03               	btfss	3,2
  3858  01FB  2A06               	goto	l2135
  3859                           
  3860                           ;main.c: 85:             volatile uint8_t foundAddress = i;
  3861  01FC  0824               	movf	main@i^(0+128),w
  3862  01FD  0140               	movlb	0	; select bank0
  3863  01FE  00EA               	movwf	??_main
  3864  01FF  086A               	movf	??_main,w
  3865  0200  0141               	movlb	1	; select bank1
  3866  0201  00A2               	movwf	main@foundAddress^(0+128)	;volatile
  3867                           
  3868                           ;main.c: 86:             __builtin_software_breakpoint();
  3869  0202  0003               	trap
  3870                           
  3871                           ;main.c: 87:             volatile int dummy = 0;
  3872  0203  0141               	movlb	1	; select bank1
  3873  0204  01A0               	clrf	main@dummy^(0+128)	;volatile
  3874  0205  01A1               	clrf	(main@dummy+1)^(0+128)	;volatile
  3875  0206                     l2135:	
  3876                           ;main.c: 88:         }
  3877                           
  3878                           
  3879                           ;main.c: 93:     }
  3880  0206  3001               	movlw	1
  3881  0207  07A4               	addwf	main@i^(0+128),f
  3882  0208  3000               	movlw	0
  3883  0209  3DA5               	addwfc	(main@i+1)^(0+128),f
  3884  020A  0825               	movf	(main@i+1)^(0+128),w
  3885  020B  3A80               	xorlw	128
  3886  020C  0140               	movlb	0	; select bank0
  3887  020D  00EA               	movwf	??_main
  3888  020E  3080               	movlw	128
  3889  020F  026A               	subwf	??_main,w
  3890  0210  1D03               	skipz
  3891  0211  2A15               	goto	u1115
  3892  0212  3080               	movlw	128
  3893  0213  0141               	movlb	1	; select bank1
  3894  0214  0224               	subwf	main@i^(0+128),w
  3895  0215                     u1115:	
  3896  0215  1C03               	skipc
  3897  0216  29DA               	goto	l2115
  3898  0217  3180  2817         	ljmp	start
  3899  0219                     __end_of_main:	
  3900                           
  3901                           	psect	text1
  3902  030E                     __ptext1:	
  3903 ;; *************** function _SYSTEM_Initialize *****************
  3904 ;; Defined at:
  3905 ;;		line 50 in file "mcc_generated_files/mcc.c"
  3906 ;; Parameters:    Size  Location     Type
  3907 ;;		None
  3908 ;; Auto vars:     Size  Location     Type
  3909 ;;		None
  3910 ;; Return value:  Size  Location     Type
  3911 ;;                  1    wreg      void 
  3912 ;; Registers used:
  3913 ;;		wreg, status,2, status,0, pclath, cstack
  3914 ;; Tracked objects:
  3915 ;;		On entry : 0/0
  3916 ;;		On exit  : 0/0
  3917 ;;		Unchanged: 0/0
  3918 ;; Data sizes:     COMMON   BANK0   BANK1   BANK2   BANK3   BANK4   BANK5   BANK6   BANK7   BANK8   BANK9  BANK10  BANK1
      +1  BANK12  BANK13  BANK14  BANK15  BANK16  BANK17  BANK18  BANK19  BANK20  BANK21  BANK22  BANK23  BANK24  BANK25
  3919 ;;      Params:         0       0       0       0       0       0       0       0       0       0       0       0       
      +0       0       0       0       0       0       0       0       0       0       0       0       0       0       0
  3920 ;;      Locals:         0       0       0       0       0       0       0       0       0       0       0       0       
      +0       0       0       0       0       0       0       0       0       0       0       0       0       0       0
  3921 ;;      Temps:          0       0       0       0       0       0       0       0       0       0       0       0       
      +0       0       0       0       0       0       0       0       0       0       0       0       0       0       0
  3922 ;;      Totals:         0       0       0       0       0       0       0       0       0       0       0       0       
      +0       0       0       0       0       0       0       0       0       0       0       0       0       0       0
  3923 ;;Total ram usage:        0 bytes
  3924 ;; Hardware stack levels used:    1
  3925 ;; Hardware stack levels required when called:    4
  3926 ;; This function calls:
  3927 ;;		_I2C1_Initialize
  3928 ;;		_OSCILLATOR_Initialize
  3929 ;;		_PIN_MANAGER_Initialize
  3930 ;;		_PMD_Initialize
  3931 ;; This function is called by:
  3932 ;;		_main
  3933 ;; This function uses a non-reentrant model
  3934 ;;
  3935                           
  3936                           
  3937                           ;psect for function _SYSTEM_Initialize
  3938  030E                     _SYSTEM_Initialize:	
  3939                           
  3940                           ;mcc_generated_files/mcc.c: 52:     PMD_Initialize();
  3941                           
  3942                           ;incstack = 0
  3943                           ; Regs used in _SYSTEM_Initialize: [wreg+status,2+status,0+pclath+cstack]
  3944  030E  3183  231A  3183   	fcall	_PMD_Initialize
  3945                           
  3946                           ;mcc_generated_files/mcc.c: 53:     PIN_MANAGER_Initialize();
  3947  0311  3182  225E  3183   	fcall	_PIN_MANAGER_Initialize
  3948                           
  3949                           ;mcc_generated_files/mcc.c: 54:     OSCILLATOR_Initialize();
  3950  0314  3183  2336  3183   	fcall	_OSCILLATOR_Initialize
  3951                           
  3952                           ;mcc_generated_files/mcc.c: 55:     I2C1_Initialize();
  3953  0317  3182  22CE         	fcall	_I2C1_Initialize
  3954  0319  0008               	return
  3955  031A                     __end_of_SYSTEM_Initialize:	
  3956                           
  3957                           	psect	text2
  3958  031A                     __ptext2:	
  3959 ;; *************** function _PMD_Initialize *****************
  3960 ;; Defined at:
  3961 ;;		line 72 in file "mcc_generated_files/mcc.c"
  3962 ;; Parameters:    Size  Location     Type
  3963 ;;		None
  3964 ;; Auto vars:     Size  Location     Type
  3965 ;;		None
  3966 ;; Return value:  Size  Location     Type
  3967 ;;                  1    wreg      void 
  3968 ;; Registers used:
  3969 ;;		status,2
  3970 ;; Tracked objects:
  3971 ;;		On entry : 0/0
  3972 ;;		On exit  : 0/0
  3973 ;;		Unchanged: 0/0
  3974 ;; Data sizes:     COMMON   BANK0   BANK1   BANK2   BANK3   BANK4   BANK5   BANK6   BANK7   BANK8   BANK9  BANK10  BANK1
      +1  BANK12  BANK13  BANK14  BANK15  BANK16  BANK17  BANK18  BANK19  BANK20  BANK21  BANK22  BANK23  BANK24  BANK25
  3975 ;;      Params:         0       0       0       0       0       0       0       0       0       0       0       0       
      +0       0       0       0       0       0       0       0       0       0       0       0       0       0       0
  3976 ;;      Locals:         0       0       0       0       0       0       0       0       0       0       0       0       
      +0       0       0       0       0       0       0       0       0       0       0       0       0       0       0
  3977 ;;      Temps:          0       0       0       0       0       0       0       0       0       0       0       0       
      +0       0       0       0       0       0       0       0       0       0       0       0       0       0       0
  3978 ;;      Totals:         0       0       0       0       0       0       0       0       0       0       0       0       
      +0       0       0       0       0       0       0       0       0       0       0       0       0       0       0
  3979 ;;Total ram usage:        0 bytes
  3980 ;; Hardware stack levels used:    1
  3981 ;; Hardware stack levels required when called:    3
  3982 ;; This function calls:
  3983 ;;		Nothing
  3984 ;; This function is called by:
  3985 ;;		_SYSTEM_Initialize
  3986 ;; This function uses a non-reentrant model
  3987 ;;
  3988                           
  3989                           
  3990                           ;psect for function _PMD_Initialize
  3991  031A                     _PMD_Initialize:	
  3992                           
  3993                           ;mcc_generated_files/mcc.c: 75:     PMD0 = 0x00;
  3994                           
  3995                           ;incstack = 0
  3996                           ; Regs used in _PMD_Initialize: [status,2]
  3997  031A  014F               	movlb	15	; select bank15
  3998  031B  0196               	clrf	22	;volatile
  3999                           
  4000                           ;mcc_generated_files/mcc.c: 77:     PMD1 = 0x00;
  4001  031C  0197               	clrf	23	;volatile
  4002                           
  4003                           ;mcc_generated_files/mcc.c: 79:     PMD2 = 0x00;
  4004  031D  0198               	clrf	24	;volatile
  4005                           
  4006                           ;mcc_generated_files/mcc.c: 81:     PMD3 = 0x00;
  4007  031E  0199               	clrf	25	;volatile
  4008                           
  4009                           ;mcc_generated_files/mcc.c: 83:     PMD4 = 0x00;
  4010  031F  019A               	clrf	26	;volatile
  4011                           
  4012                           ;mcc_generated_files/mcc.c: 85:     PMD5 = 0x00;
  4013  0320  019B               	clrf	27	;volatile
  4014                           
  4015                           ;mcc_generated_files/mcc.c: 87:     PMD6 = 0x00;
  4016  0321  019C               	clrf	28	;volatile
  4017                           
  4018                           ;mcc_generated_files/mcc.c: 89:     PMD7 = 0x00;
  4019  0322  019D               	clrf	29	;volatile
  4020  0323  0008               	return
  4021  0324                     __end_of_PMD_Initialize:	
  4022                           
  4023                           	psect	text3
  4024  025E                     __ptext3:	
  4025 ;; *************** function _PIN_MANAGER_Initialize *****************
  4026 ;; Defined at:
  4027 ;;		line 55 in file "mcc_generated_files/pin_manager.c"
  4028 ;; Parameters:    Size  Location     Type
  4029 ;;		None
  4030 ;; Auto vars:     Size  Location     Type
  4031 ;;		None
  4032 ;; Return value:  Size  Location     Type
  4033 ;;                  1    wreg      void 
  4034 ;; Registers used:
  4035 ;;		wreg, status,2
  4036 ;; Tracked objects:
  4037 ;;		On entry : 0/0
  4038 ;;		On exit  : 0/0
  4039 ;;		Unchanged: 0/0
  4040 ;; Data sizes:     COMMON   BANK0   BANK1   BANK2   BANK3   BANK4   BANK5   BANK6   BANK7   BANK8   BANK9  BANK10  BANK1
      +1  BANK12  BANK13  BANK14  BANK15  BANK16  BANK17  BANK18  BANK19  BANK20  BANK21  BANK22  BANK23  BANK24  BANK25
  4041 ;;      Params:         0       0       0       0       0       0       0       0       0       0       0       0       
      +0       0       0       0       0       0       0       0       0       0       0       0       0       0       0
  4042 ;;      Locals:         0       0       0       0       0       0       0       0       0       0       0       0       
      +0       0       0       0       0       0       0       0       0       0       0       0       0       0       0
  4043 ;;      Temps:          0       0       0       0       0       0       0       0       0       0       0       0       
      +0       0       0       0       0       0       0       0       0       0       0       0       0       0       0
  4044 ;;      Totals:         0       0       0       0       0       0       0       0       0       0       0       0       
      +0       0       0       0       0       0       0       0       0       0       0       0       0       0       0
  4045 ;;Total ram usage:        0 bytes
  4046 ;; Hardware stack levels used:    1
  4047 ;; Hardware stack levels required when called:    3
  4048 ;; This function calls:
  4049 ;;		Nothing
  4050 ;; This function is called by:
  4051 ;;		_SYSTEM_Initialize
  4052 ;; This function uses a non-reentrant model
  4053 ;;
  4054                           
  4055                           
  4056                           ;psect for function _PIN_MANAGER_Initialize
  4057  025E                     _PIN_MANAGER_Initialize:	
  4058                           
  4059                           ;mcc_generated_files/pin_manager.c: 60:     LATA = 0x00;
  4060                           
  4061                           ;incstack = 0
  4062                           ; Regs used in _PIN_MANAGER_Initialize: [wreg+status,2]
  4063  025E  0140               	movlb	0	; select bank0
  4064  025F  0198               	clrf	24	;volatile
  4065                           
  4066                           ;mcc_generated_files/pin_manager.c: 61:     LATB = 0x00;
  4067  0260  0199               	clrf	25	;volatile
  4068                           
  4069                           ;mcc_generated_files/pin_manager.c: 62:     LATC = 0x00;
  4070  0261  019A               	clrf	26	;volatile
  4071                           
  4072                           ;mcc_generated_files/pin_manager.c: 67:     TRISA = 0x3F;
  4073  0262  303F               	movlw	63
  4074  0263  0092               	movwf	18	;volatile
  4075                           
  4076                           ;mcc_generated_files/pin_manager.c: 68:     TRISB = 0xF0;
  4077  0264  30F0               	movlw	240
  4078  0265  0093               	movwf	19	;volatile
  4079                           
  4080                           ;mcc_generated_files/pin_manager.c: 69:     TRISC = 0xFF;
  4081  0266  30FF               	movlw	255
  4082  0267  0094               	movwf	20	;volatile
  4083                           
  4084                           ;mcc_generated_files/pin_manager.c: 74:     ANSELC = 0xFF;
  4085  0268  30FF               	movlw	255
  4086  0269  017E               	movlb	62	; select bank62
  4087  026A  00CE               	movwf	78	;volatile
  4088                           
  4089                           ;mcc_generated_files/pin_manager.c: 75:     ANSELB = 0xF0;
  4090  026B  30F0               	movlw	240
  4091  026C  00C3               	movwf	67	;volatile
  4092                           
  4093                           ;mcc_generated_files/pin_manager.c: 76:     ANSELA = 0x07;
  4094  026D  3007               	movlw	7
  4095  026E  00B8               	movwf	56	;volatile
  4096                           
  4097                           ;mcc_generated_files/pin_manager.c: 81:     WPUB = 0x00;
  4098  026F  01C4               	clrf	68	;volatile
  4099                           
  4100                           ;mcc_generated_files/pin_manager.c: 82:     WPUA = 0x00;
  4101  0270  01B9               	clrf	57	;volatile
  4102                           
  4103                           ;mcc_generated_files/pin_manager.c: 83:     WPUC = 0x00;
  4104  0271  01CF               	clrf	79	;volatile
  4105                           
  4106                           ;mcc_generated_files/pin_manager.c: 88:     ODCONA = 0x00;
  4107  0272  01BA               	clrf	58	;volatile
  4108                           
  4109                           ;mcc_generated_files/pin_manager.c: 89:     ODCONB = 0x00;
  4110  0273  01C5               	clrf	69	;volatile
  4111                           
  4112                           ;mcc_generated_files/pin_manager.c: 90:     ODCONC = 0x00;
  4113  0274  01D0               	clrf	80	;volatile
  4114                           
  4115                           ;mcc_generated_files/pin_manager.c: 95:     SLRCONA = 0x37;
  4116  0275  3037               	movlw	55
  4117  0276  00BB               	movwf	59	;volatile
  4118                           
  4119                           ;mcc_generated_files/pin_manager.c: 96:     SLRCONB = 0xF0;
  4120  0277  30F0               	movlw	240
  4121  0278  00C6               	movwf	70	;volatile
  4122                           
  4123                           ;mcc_generated_files/pin_manager.c: 97:     SLRCONC = 0xFF;
  4124  0279  30FF               	movlw	255
  4125  027A  00D1               	movwf	81	;volatile
  4126                           
  4127                           ;mcc_generated_files/pin_manager.c: 106:     SSP1CLKPPS = 0x05;
  4128  027B  3005               	movlw	5
  4129  027C  017D               	movlb	61	; select bank61
  4130  027D  00C5               	movwf	69	;volatile
  4131                           
  4132                           ;mcc_generated_files/pin_manager.c: 107:     RA4PPS = 0x14;
  4133  027E  3014               	movlw	20
  4134  027F  017E               	movlb	62	; select bank62
  4135  0280  0094               	movwf	20	;volatile
  4136                           
  4137                           ;mcc_generated_files/pin_manager.c: 108:     RA5PPS = 0x13;
  4138  0281  3013               	movlw	19
  4139  0282  0095               	movwf	21	;volatile
  4140                           
  4141                           ;mcc_generated_files/pin_manager.c: 109:     SSP1DATPPS = 0x04;
  4142  0283  3004               	movlw	4
  4143  0284  017D               	movlb	61	; select bank61
  4144  0285  00C6               	movwf	70	;volatile
  4145  0286  0008               	return
  4146  0287                     __end_of_PIN_MANAGER_Initialize:	
  4147                           
  4148                           	psect	text4
  4149  0336                     __ptext4:	
  4150 ;; *************** function _OSCILLATOR_Initialize *****************
  4151 ;; Defined at:
  4152 ;;		line 58 in file "mcc_generated_files/mcc.c"
  4153 ;; Parameters:    Size  Location     Type
  4154 ;;		None
  4155 ;; Auto vars:     Size  Location     Type
  4156 ;;		None
  4157 ;; Return value:  Size  Location     Type
  4158 ;;                  1    wreg      void 
  4159 ;; Registers used:
  4160 ;;		wreg, status,2
  4161 ;; Tracked objects:
  4162 ;;		On entry : 0/0
  4163 ;;		On exit  : 0/0
  4164 ;;		Unchanged: 0/0
  4165 ;; Data sizes:     COMMON   BANK0   BANK1   BANK2   BANK3   BANK4   BANK5   BANK6   BANK7   BANK8   BANK9  BANK10  BANK1
      +1  BANK12  BANK13  BANK14  BANK15  BANK16  BANK17  BANK18  BANK19  BANK20  BANK21  BANK22  BANK23  BANK24  BANK25
  4166 ;;      Params:         0       0       0       0       0       0       0       0       0       0       0       0       
      +0       0       0       0       0       0       0       0       0       0       0       0       0       0       0
  4167 ;;      Locals:         0       0       0       0       0       0       0       0       0       0       0       0       
      +0       0       0       0       0       0       0       0       0       0       0       0       0       0       0
  4168 ;;      Temps:          0       0       0       0       0       0       0       0       0       0       0       0       
      +0       0       0       0       0       0       0       0       0       0       0       0       0       0       0
  4169 ;;      Totals:         0       0       0       0       0       0       0       0       0       0       0       0       
      +0       0       0       0       0       0       0       0       0       0       0       0       0       0       0
  4170 ;;Total ram usage:        0 bytes
  4171 ;; Hardware stack levels used:    1
  4172 ;; Hardware stack levels required when called:    3
  4173 ;; This function calls:
  4174 ;;		Nothing
  4175 ;; This function is called by:
  4176 ;;		_SYSTEM_Initialize
  4177 ;; This function uses a non-reentrant model
  4178 ;;
  4179                           
  4180                           
  4181                           ;psect for function _OSCILLATOR_Initialize
  4182  0336                     _OSCILLATOR_Initialize:	
  4183                           
  4184                           ;mcc_generated_files/mcc.c: 61:     OSCCON1 = 0x60;
  4185                           
  4186                           ;incstack = 0
  4187                           ; Regs used in _OSCILLATOR_Initialize: [wreg+status,2]
  4188  0336  3060               	movlw	96
  4189  0337  0151               	movlb	17	; select bank17
  4190  0338  008D               	movwf	13	;volatile
  4191                           
  4192                           ;mcc_generated_files/mcc.c: 63:     OSCCON3 = 0x00;
  4193  0339  018F               	clrf	15	;volatile
  4194                           
  4195                           ;mcc_generated_files/mcc.c: 65:     OSCEN = 0x00;
  4196  033A  0191               	clrf	17	;volatile
  4197                           
  4198                           ;mcc_generated_files/mcc.c: 67:     OSCFRQ = 0x06;
  4199  033B  3006               	movlw	6
  4200  033C  0093               	movwf	19	;volatile
  4201                           
  4202                           ;mcc_generated_files/mcc.c: 69:     OSCTUNE = 0x00;
  4203  033D  0192               	clrf	18	;volatile
  4204  033E  0008               	return
  4205  033F                     __end_of_OSCILLATOR_Initialize:	
  4206                           
  4207                           	psect	text5
  4208  02CE                     __ptext5:	
  4209 ;; *************** function _I2C1_Initialize *****************
  4210 ;; Defined at:
  4211 ;;		line 198 in file "mcc_generated_files/i2c1.c"
  4212 ;; Parameters:    Size  Location     Type
  4213 ;;		None
  4214 ;; Auto vars:     Size  Location     Type
  4215 ;;		None
  4216 ;; Return value:  Size  Location     Type
  4217 ;;                  1    wreg      void 
  4218 ;; Registers used:
  4219 ;;		wreg, status,2
  4220 ;; Tracked objects:
  4221 ;;		On entry : 0/0
  4222 ;;		On exit  : 0/0
  4223 ;;		Unchanged: 0/0
  4224 ;; Data sizes:     COMMON   BANK0   BANK1   BANK2   BANK3   BANK4   BANK5   BANK6   BANK7   BANK8   BANK9  BANK10  BANK1
      +1  BANK12  BANK13  BANK14  BANK15  BANK16  BANK17  BANK18  BANK19  BANK20  BANK21  BANK22  BANK23  BANK24  BANK25
  4225 ;;      Params:         0       0       0       0       0       0       0       0       0       0       0       0       
      +0       0       0       0       0       0       0       0       0       0       0       0       0       0       0
  4226 ;;      Locals:         0       0       0       0       0       0       0       0       0       0       0       0       
      +0       0       0       0       0       0       0       0       0       0       0       0       0       0       0
  4227 ;;      Temps:          0       1       0       0       0       0       0       0       0       0       0       0       
      +0       0       0       0       0       0       0       0       0       0       0       0       0       0       0
  4228 ;;      Totals:         0       1       0       0       0       0       0       0       0       0       0       0       
      +0       0       0       0       0       0       0       0       0       0       0       0       0       0       0
  4229 ;;Total ram usage:        1 bytes
  4230 ;; Hardware stack levels used:    1
  4231 ;; Hardware stack levels required when called:    3
  4232 ;; This function calls:
  4233 ;;		Nothing
  4234 ;; This function is called by:
  4235 ;;		_SYSTEM_Initialize
  4236 ;; This function uses a non-reentrant model
  4237 ;;
  4238                           
  4239                           
  4240                           ;psect for function _I2C1_Initialize
  4241  02CE                     _I2C1_Initialize:	
  4242                           
  4243                           ;mcc_generated_files/i2c1.c: 200:     i2c1_object.pTrHead = i2c1_tr_queue;
  4244                           
  4245                           ;incstack = 0
  4246                           ; Regs used in _I2C1_Initialize: [wreg+status,2]
  4247  02CE  3059               	movlw	(low (_i2c1_tr_queue| 0))& (0+255)
  4248  02CF  0140               	movlb	0	; select bank0
  4249  02D0  00DC               	movwf	??_I2C1_Initialize
  4250  02D1  085C               	movf	??_I2C1_Initialize,w
  4251  02D2  00A1               	movwf	low ((_i2c1_object| 0+1))
  4252                           
  4253                           ;mcc_generated_files/i2c1.c: 201:     i2c1_object.pTrTail = i2c1_tr_queue;
  4254  02D3  3059               	movlw	(low (_i2c1_tr_queue| 0))& (0+255)
  4255  02D4  00DC               	movwf	??_I2C1_Initialize
  4256  02D5  085C               	movf	??_I2C1_Initialize,w
  4257  02D6  00A0               	movwf	_i2c1_object
  4258                           
  4259                           ;mcc_generated_files/i2c1.c: 202:     i2c1_object.trStatus.s.empty = 1;
  4260  02D7  14A2               	bsf	_i2c1_object+2,1
  4261                           
  4262                           ;mcc_generated_files/i2c1.c: 203:     i2c1_object.trStatus.s.full = 0;
  4263  02D8  1022               	bcf	_i2c1_object+2,0
  4264                           
  4265                           ;mcc_generated_files/i2c1.c: 205:     i2c1_object.i2cErrors = 0;
  4266  02D9  01A4               	clrf	_i2c1_object+4
  4267                           
  4268                           ;mcc_generated_files/i2c1.c: 208:     SSP1STAT = 0x00;
  4269  02DA  0143               	movlb	3	; select bank3
  4270  02DB  018F               	clrf	15	;volatile
  4271                           
  4272                           ;mcc_generated_files/i2c1.c: 210:     SSP1CON1 = 0x28;
  4273  02DC  3028               	movlw	40
  4274  02DD  0090               	movwf	16	;volatile
  4275                           
  4276                           ;mcc_generated_files/i2c1.c: 212:     SSP1CON3 = 0x00;
  4277  02DE  0192               	clrf	18	;volatile
  4278                           
  4279                           ;mcc_generated_files/i2c1.c: 214:     SSP1ADD = 0x70;
  4280  02DF  3070               	movlw	112
  4281  02E0  008D               	movwf	13	;volatile
  4282                           
  4283                           ;mcc_generated_files/i2c1.c: 217:     PIR3bits.SSP1IF = 0;
  4284  02E1  014E               	movlb	14	; select bank14
  4285  02E2  100F               	bcf	15,0	;volatile
  4286                           
  4287                           ;mcc_generated_files/i2c1.c: 218:     PIR3bits.BCL1IF = 0;
  4288  02E3  108F               	bcf	15,1	;volatile
  4289                           
  4290                           ;mcc_generated_files/i2c1.c: 221:     PIE3bits.SSP1IE = 1;
  4291  02E4  1419               	bsf	25,0	;volatile
  4292                           
  4293                           ;mcc_generated_files/i2c1.c: 222:     PIE3bits.BCL1IE = 1;
  4294  02E5  1499               	bsf	25,1	;volatile
  4295  02E6  0008               	return
  4296  02E7                     __end_of_I2C1_Initialize:	
  4297                           
  4298                           	psect	text6
  4299  0287                     __ptext6:	
  4300 ;; *************** function _I2C1_MasterWrite *****************
  4301 ;; Defined at:
  4302 ;;		line 600 in file "mcc_generated_files/i2c1.c"
  4303 ;; Parameters:    Size  Location     Type
  4304 ;;  pdata           1    wreg     PTR unsigned char 
  4305 ;;		 -> writeData@data(1), main@dataToSend(1), 
  4306 ;;  length          1    7[BANK0 ] unsigned char 
  4307 ;;  address         2    8[BANK0 ] unsigned short 
  4308 ;;  pflag           1   10[BANK0 ] PTR enum E10866
  4309 ;;		 -> writeData@status(1), main@status(1), 
  4310 ;; Auto vars:     Size  Location     Type
  4311 ;;  pdata           1   13[BANK0 ] PTR unsigned char 
  4312 ;;		 -> writeData@data(1), main@dataToSend(1), 
  4313 ;; Return value:  Size  Location     Type
  4314 ;;                  1    wreg      void 
  4315 ;; Registers used:
  4316 ;;		wreg, fsr1l, fsr1h, status,2, status,0, pclath, cstack
  4317 ;; Tracked objects:
  4318 ;;		On entry : 0/0
  4319 ;;		On exit  : 0/0
  4320 ;;		Unchanged: 0/0
  4321 ;; Data sizes:     COMMON   BANK0   BANK1   BANK2   BANK3   BANK4   BANK5   BANK6   BANK7   BANK8   BANK9  BANK10  BANK1
      +1  BANK12  BANK13  BANK14  BANK15  BANK16  BANK17  BANK18  BANK19  BANK20  BANK21  BANK22  BANK23  BANK24  BANK25
  4322 ;;      Params:         0       4       0       0       0       0       0       0       0       0       0       0       
      +0       0       0       0       0       0       0       0       0       0       0       0       0       0       0
  4323 ;;      Locals:         0       1       0       0       0       0       0       0       0       0       0       0       
      +0       0       0       0       0       0       0       0       0       0       0       0       0       0       0
  4324 ;;      Temps:          0       2       0       0       0       0       0       0       0       0       0       0       
      +0       0       0       0       0       0       0       0       0       0       0       0       0       0       0
  4325 ;;      Totals:         0       7       0       0       0       0       0       0       0       0       0       0       
      +0       0       0       0       0       0       0       0       0       0       0       0       0       0       0
  4326 ;;Total ram usage:        7 bytes
  4327 ;; Hardware stack levels used:    1
  4328 ;; Hardware stack levels required when called:    5
  4329 ;; This function calls:
  4330 ;;		_I2C1_MasterTRBInsert
  4331 ;;		_I2C1_MasterWriteTRBBuild
  4332 ;; This function is called by:
  4333 ;;		_main
  4334 ;;		_writeData
  4335 ;; This function uses a non-reentrant model
  4336 ;;
  4337                           
  4338                           
  4339                           ;psect for function _I2C1_MasterWrite
  4340  0287                     _I2C1_MasterWrite:	
  4341                           
  4342                           ;incstack = 0
  4343                           ; Regs used in _I2C1_MasterWrite: [wreg+fsr1l+fsr1h+status,2+status,0+pclath+cstack]
  4344                           ;I2C1_MasterWrite@pdata stored from wreg
  4345  0287  0140               	movlb	0	; select bank0
  4346  0288  00E9               	movwf	I2C1_MasterWrite@pdata
  4347                           
  4348                           ;mcc_generated_files/i2c1.c: 601:                                 uint8_t *pdata,;mcc_ge
      +                          nerated_files/i2c1.c: 602:                                 uint8_t length,;mcc_generated
      +                          _files/i2c1.c: 603:                                 uint16_t address,;mcc_generated_file
      +                          s/i2c1.c: 604:                                 I2C1_MESSAGE_STATUS *pflag);mcc_generated
      +                          _files/i2c1.c: 605: {;mcc_generated_files/i2c1.c: 606:     static I2C1_TRANSACTION_REQUE
      +                          ST_BLOCK trBlock;;mcc_generated_files/i2c1.c: 609:     if (i2c1_object.trStatus.s.full !
      +                          = 1)
  4349  0289  1822               	btfsc	_i2c1_object+2,0
  4350  028A  2AA8               	goto	l2085
  4351                           
  4352                           ;mcc_generated_files/i2c1.c: 610:     {;mcc_generated_files/i2c1.c: 611:         I2C1_Ma
      +                          sterWriteTRBBuild(&trBlock, pdata, length, address);
  4353  028B  0869               	movf	I2C1_MasterWrite@pdata,w
  4354  028C  00E7               	movwf	??_I2C1_MasterWrite
  4355  028D  0867               	movf	??_I2C1_MasterWrite,w
  4356  028E  00DC               	movwf	I2C1_MasterWriteTRBBuild@pdata
  4357  028F  0863               	movf	I2C1_MasterWrite@length,w
  4358  0290  00E8               	movwf	??_I2C1_MasterWrite+1
  4359  0291  0868               	movf	??_I2C1_MasterWrite+1,w
  4360  0292  00DD               	movwf	I2C1_MasterWriteTRBBuild@length
  4361  0293  0865               	movf	I2C1_MasterWrite@address+1,w
  4362  0294  00DF               	movwf	I2C1_MasterWriteTRBBuild@address+1
  4363  0295  0864               	movf	I2C1_MasterWrite@address,w
  4364  0296  00DE               	movwf	I2C1_MasterWriteTRBBuild@address
  4365  0297  3055               	movlw	(low (I2C1_MasterWrite@trBlock| 0))& (0+255)
  4366  0298  3182  22AE  3182   	fcall	_I2C1_MasterWriteTRBBuild
  4367                           
  4368                           ;mcc_generated_files/i2c1.c: 612:         I2C1_MasterTRBInsert(1, &trBlock, pflag);
  4369  029B  3055               	movlw	(low (I2C1_MasterWrite@trBlock| 0))& (0+255)
  4370  029C  0140               	movlb	0	; select bank0
  4371  029D  00E7               	movwf	??_I2C1_MasterWrite
  4372  029E  0867               	movf	??_I2C1_MasterWrite,w
  4373  029F  00DC               	movwf	I2C1_MasterTRBInsert@ptrb_list
  4374  02A0  0866               	movf	I2C1_MasterWrite@pflag,w
  4375  02A1  00E8               	movwf	??_I2C1_MasterWrite+1
  4376  02A2  0868               	movf	??_I2C1_MasterWrite+1,w
  4377  02A3  00DD               	movwf	I2C1_MasterTRBInsert@pflag
  4378  02A4  3001               	movlw	1
  4379  02A5  3182  2219         	fcall	_I2C1_MasterTRBInsert
  4380                           
  4381                           ;mcc_generated_files/i2c1.c: 613:     }
  4382  02A7  0008               	return
  4383  02A8                     l2085:	
  4384                           
  4385                           ;mcc_generated_files/i2c1.c: 615:     {;mcc_generated_files/i2c1.c: 616:         *pflag 
      +                          = I2C1_MESSAGE_FAIL;
  4386  02A8  0866               	movf	I2C1_MasterWrite@pflag,w
  4387  02A9  0086               	movwf	6
  4388  02AA  0187               	clrf	7
  4389  02AB  0181               	clrf	1
  4390  02AC  0A81               	incf	1,f
  4391  02AD  0008               	return
  4392  02AE                     __end_of_I2C1_MasterWrite:	
  4393                           
  4394                           	psect	text7
  4395  02AE                     __ptext7:	
  4396 ;; *************** function _I2C1_MasterWriteTRBBuild *****************
  4397 ;; Defined at:
  4398 ;;		line 721 in file "mcc_generated_files/i2c1.c"
  4399 ;; Parameters:    Size  Location     Type
  4400 ;;  ptrb            1    wreg     PTR struct .
  4401 ;;		 -> I2C1_MasterWrite@trBlock(4), 
  4402 ;;  pdata           1    0[BANK0 ] PTR unsigned char 
  4403 ;;		 -> writeData@data(1), main@dataToSend(1), 
  4404 ;;  length          1    1[BANK0 ] unsigned char 
  4405 ;;  address         2    2[BANK0 ] unsigned short 
  4406 ;; Auto vars:     Size  Location     Type
  4407 ;;  ptrb            1    6[BANK0 ] PTR struct .
  4408 ;;		 -> I2C1_MasterWrite@trBlock(4), 
  4409 ;; Return value:  Size  Location     Type
  4410 ;;                  1    wreg      void 
  4411 ;; Registers used:
  4412 ;;		wreg, fsr1l, fsr1h, status,2, status,0
  4413 ;; Tracked objects:
  4414 ;;		On entry : 0/0
  4415 ;;		On exit  : 0/0
  4416 ;;		Unchanged: 0/0
  4417 ;; Data sizes:     COMMON   BANK0   BANK1   BANK2   BANK3   BANK4   BANK5   BANK6   BANK7   BANK8   BANK9  BANK10  BANK1
      +1  BANK12  BANK13  BANK14  BANK15  BANK16  BANK17  BANK18  BANK19  BANK20  BANK21  BANK22  BANK23  BANK24  BANK25
  4418 ;;      Params:         0       4       0       0       0       0       0       0       0       0       0       0       
      +0       0       0       0       0       0       0       0       0       0       0       0       0       0       0
  4419 ;;      Locals:         0       1       0       0       0       0       0       0       0       0       0       0       
      +0       0       0       0       0       0       0       0       0       0       0       0       0       0       0
  4420 ;;      Temps:          0       2       0       0       0       0       0       0       0       0       0       0       
      +0       0       0       0       0       0       0       0       0       0       0       0       0       0       0
  4421 ;;      Totals:         0       7       0       0       0       0       0       0       0       0       0       0       
      +0       0       0       0       0       0       0       0       0       0       0       0       0       0       0
  4422 ;;Total ram usage:        7 bytes
  4423 ;; Hardware stack levels used:    1
  4424 ;; Hardware stack levels required when called:    3
  4425 ;; This function calls:
  4426 ;;		Nothing
  4427 ;; This function is called by:
  4428 ;;		_I2C1_MasterWrite
  4429 ;; This function uses a non-reentrant model
  4430 ;;
  4431                           
  4432                           
  4433                           ;psect for function _I2C1_MasterWriteTRBBuild
  4434  02AE                     _I2C1_MasterWriteTRBBuild:	
  4435                           
  4436                           ;incstack = 0
  4437                           ; Regs used in _I2C1_MasterWriteTRBBuild: [wreg+fsr1l+fsr1h+status,2+status,0]
  4438                           ;I2C1_MasterWriteTRBBuild@ptrb stored from wreg
  4439  02AE  0140               	movlb	0	; select bank0
  4440  02AF  00E2               	movwf	I2C1_MasterWriteTRBBuild@ptrb
  4441                           
  4442                           ;mcc_generated_files/i2c1.c: 722:                                 I2C1_TRANSACTION_REQUE
      +                          ST_BLOCK *ptrb,;mcc_generated_files/i2c1.c: 723:                                 uint8_t
      +                           *pdata,;mcc_generated_files/i2c1.c: 724:                                 uint8_t length
      +                          ,;mcc_generated_files/i2c1.c: 725:                                 uint16_t address);mcc
      +                          _generated_files/i2c1.c: 726: {;mcc_generated_files/i2c1.c: 727:     ptrb->address = add
      +                          ress << 1;
  4443  02B0  085F               	movf	I2C1_MasterWriteTRBBuild@address+1,w
  4444  02B1  00E1               	movwf	??_I2C1_MasterWriteTRBBuild+1
  4445  02B2  085E               	movf	I2C1_MasterWriteTRBBuild@address,w
  4446  02B3  00E0               	movwf	??_I2C1_MasterWriteTRBBuild
  4447  02B4  35E0               	lslf	??_I2C1_MasterWriteTRBBuild,f
  4448  02B5  0DE1               	rlf	??_I2C1_MasterWriteTRBBuild+1,f
  4449  02B6  0862               	movf	I2C1_MasterWriteTRBBuild@ptrb,w
  4450  02B7  0086               	movwf	6
  4451  02B8  0187               	clrf	7
  4452  02B9  0860               	movf	??_I2C1_MasterWriteTRBBuild,w
  4453  02BA  3FC0               	movwi [0]fsr1
  4454  02BB  0861               	movf	??_I2C1_MasterWriteTRBBuild+1,w
  4455  02BC  3FC1               	movwi [1]fsr1
  4456                           
  4457                           ;mcc_generated_files/i2c1.c: 728:     ptrb->length = length;
  4458  02BD  085D               	movf	I2C1_MasterWriteTRBBuild@length,w
  4459  02BE  00E0               	movwf	??_I2C1_MasterWriteTRBBuild
  4460  02BF  0862               	movf	I2C1_MasterWriteTRBBuild@ptrb,w
  4461  02C0  3E02               	addlw	2
  4462  02C1  0086               	movwf	6
  4463  02C2  0187               	clrf	7
  4464  02C3  0860               	movf	??_I2C1_MasterWriteTRBBuild,w
  4465  02C4  0081               	movwf	1
  4466                           
  4467                           ;mcc_generated_files/i2c1.c: 729:     ptrb->pbuffer = pdata;
  4468  02C5  085C               	movf	I2C1_MasterWriteTRBBuild@pdata,w
  4469  02C6  00E0               	movwf	??_I2C1_MasterWriteTRBBuild
  4470  02C7  0862               	movf	I2C1_MasterWriteTRBBuild@ptrb,w
  4471  02C8  3E03               	addlw	3
  4472  02C9  0086               	movwf	6
  4473  02CA  0187               	clrf	7
  4474  02CB  0860               	movf	??_I2C1_MasterWriteTRBBuild,w
  4475  02CC  0081               	movwf	1
  4476  02CD  0008               	return
  4477  02CE                     __end_of_I2C1_MasterWriteTRBBuild:	
  4478                           
  4479                           	psect	text8
  4480  0219                     __ptext8:	
  4481 ;; *************** function _I2C1_MasterTRBInsert *****************
  4482 ;; Defined at:
  4483 ;;		line 654 in file "mcc_generated_files/i2c1.c"
  4484 ;; Parameters:    Size  Location     Type
  4485 ;;  count           1    wreg     unsigned char 
  4486 ;;  ptrb_list       1    0[BANK0 ] PTR struct .
  4487 ;;		 -> I2C1_MasterRead@trBlock(4), I2C1_MasterWrite@trBlock(4), 
  4488 ;;  pflag           1    1[BANK0 ] PTR enum E10866
  4489 ;;		 -> writeData@status(1), main@status(1), 
  4490 ;; Auto vars:     Size  Location     Type
  4491 ;;  count           1    3[BANK0 ] unsigned char 
  4492 ;; Return value:  Size  Location     Type
  4493 ;;                  1    wreg      void 
  4494 ;; Registers used:
  4495 ;;		wreg, fsr1l, fsr1h, status,2, status,0, pclath, cstack
  4496 ;; Tracked objects:
  4497 ;;		On entry : 0/0
  4498 ;;		On exit  : 0/0
  4499 ;;		Unchanged: 0/0
  4500 ;; Data sizes:     COMMON   BANK0   BANK1   BANK2   BANK3   BANK4   BANK5   BANK6   BANK7   BANK8   BANK9  BANK10  BANK1
      +1  BANK12  BANK13  BANK14  BANK15  BANK16  BANK17  BANK18  BANK19  BANK20  BANK21  BANK22  BANK23  BANK24  BANK25
  4501 ;;      Params:         0       2       0       0       0       0       0       0       0       0       0       0       
      +0       0       0       0       0       0       0       0       0       0       0       0       0       0       0
  4502 ;;      Locals:         0       1       0       0       0       0       0       0       0       0       0       0       
      +0       0       0       0       0       0       0       0       0       0       0       0       0       0       0
  4503 ;;      Temps:          0       1       0       0       0       0       0       0       0       0       0       0       
      +0       0       0       0       0       0       0       0       0       0       0       0       0       0       0
  4504 ;;      Totals:         0       4       0       0       0       0       0       0       0       0       0       0       
      +0       0       0       0       0       0       0       0       0       0       0       0       0       0       0
  4505 ;;Total ram usage:        4 bytes
  4506 ;; Hardware stack levels used:    1
  4507 ;; Hardware stack levels required when called:    4
  4508 ;; This function calls:
  4509 ;;		_I2C1_WaitForLastPacketToComplete
  4510 ;; This function is called by:
  4511 ;;		_I2C1_MasterWrite
  4512 ;;		_I2C1_MasterRead
  4513 ;; This function uses a non-reentrant model
  4514 ;;
  4515                           
  4516                           
  4517                           ;psect for function _I2C1_MasterTRBInsert
  4518  0219                     _I2C1_MasterTRBInsert:	
  4519                           
  4520                           ;incstack = 0
  4521                           ; Regs used in _I2C1_MasterTRBInsert: [wreg+fsr1l+fsr1h+status,2+status,0+pclath+cstack]
  4522                           ;I2C1_MasterTRBInsert@count stored from wreg
  4523  0219  0140               	movlb	0	; select bank0
  4524  021A  00DF               	movwf	I2C1_MasterTRBInsert@count
  4525                           
  4526                           ;mcc_generated_files/i2c1.c: 655:                                 uint8_t count,;mcc_gen
      +                          erated_files/i2c1.c: 656:                                 I2C1_TRANSACTION_REQUEST_BLOCK
      +                           *ptrb_list,;mcc_generated_files/i2c1.c: 657:                                 I2C1_MESSA
      +                          GE_STATUS *pflag);mcc_generated_files/i2c1.c: 658: {;mcc_generated_files/i2c1.c: 661:   
      +                            if (i2c1_object.trStatus.s.full != 1)
  4527  021B  1822               	btfsc	_i2c1_object+2,0
  4528  021C  2A4D               	goto	l1921
  4529                           
  4530                           ;mcc_generated_files/i2c1.c: 662:     {;mcc_generated_files/i2c1.c: 663:         *pflag 
      +                          = I2C1_MESSAGE_PENDING;
  4531  021D  3002               	movlw	2
  4532  021E  00DE               	movwf	??_I2C1_MasterTRBInsert
  4533  021F  085D               	movf	I2C1_MasterTRBInsert@pflag,w
  4534  0220  0086               	movwf	6
  4535  0221  0187               	clrf	7
  4536  0222  085E               	movf	??_I2C1_MasterTRBInsert,w
  4537  0223  0081               	movwf	1
  4538                           
  4539                           ;mcc_generated_files/i2c1.c: 665:         i2c1_object.pTrTail->ptrb_list = ptrb_list;
  4540  0224  085C               	movf	I2C1_MasterTRBInsert@ptrb_list,w
  4541  0225  00DE               	movwf	??_I2C1_MasterTRBInsert
  4542  0226  0A20               	incf	_i2c1_object,w
  4543  0227  0086               	movwf	6
  4544  0228  0187               	clrf	7
  4545  0229  085E               	movf	??_I2C1_MasterTRBInsert,w
  4546  022A  0081               	movwf	1
  4547                           
  4548                           ;mcc_generated_files/i2c1.c: 666:         i2c1_object.pTrTail->count = count;
  4549  022B  085F               	movf	I2C1_MasterTRBInsert@count,w
  4550  022C  00DE               	movwf	??_I2C1_MasterTRBInsert
  4551  022D  0820               	movf	_i2c1_object,w
  4552  022E  0086               	movwf	6
  4553  022F  0187               	clrf	7
  4554  0230  085E               	movf	??_I2C1_MasterTRBInsert,w
  4555  0231  0081               	movwf	1
  4556                           
  4557                           ;mcc_generated_files/i2c1.c: 667:         i2c1_object.pTrTail->pTrFlag = pflag;
  4558  0232  085D               	movf	I2C1_MasterTRBInsert@pflag,w
  4559  0233  00DE               	movwf	??_I2C1_MasterTRBInsert
  4560  0234  0820               	movf	_i2c1_object,w
  4561  0235  3E02               	addlw	2
  4562  0236  0086               	movwf	6
  4563  0237  0187               	clrf	7
  4564  0238  085E               	movf	??_I2C1_MasterTRBInsert,w
  4565  0239  0081               	movwf	1
  4566                           
  4567                           ;mcc_generated_files/i2c1.c: 668:         i2c1_object.pTrTail++;
  4568  023A  3003               	movlw	3
  4569  023B  00DE               	movwf	??_I2C1_MasterTRBInsert
  4570  023C  085E               	movf	??_I2C1_MasterTRBInsert,w
  4571  023D  07A0               	addwf	_i2c1_object,f
  4572                           
  4573                           ;mcc_generated_files/i2c1.c: 671:         if (i2c1_object.pTrTail == (i2c1_tr_queue + 1)
      +                          )
  4574  023E  0820               	movf	_i2c1_object,w
  4575  023F  3A5C               	xorlw	(low ((_i2c1_tr_queue| 0+3)))& (0+255)
  4576  0240  1D03               	skipz
  4577  0241  2A46               	goto	l1917
  4578                           
  4579                           ;mcc_generated_files/i2c1.c: 672:         {;mcc_generated_files/i2c1.c: 674:            
      +                           i2c1_object.pTrTail = i2c1_tr_queue;
  4580  0242  3059               	movlw	(low (_i2c1_tr_queue| 0))& (0+255)
  4581  0243  00DE               	movwf	??_I2C1_MasterTRBInsert
  4582  0244  085E               	movf	??_I2C1_MasterTRBInsert,w
  4583  0245  00A0               	movwf	_i2c1_object
  4584  0246                     l1917:	
  4585                           
  4586                           ;mcc_generated_files/i2c1.c: 679:         i2c1_object.trStatus.s.empty = 0;
  4587  0246  10A2               	bcf	_i2c1_object+2,1
  4588                           
  4589                           ;mcc_generated_files/i2c1.c: 682:         if (i2c1_object.pTrHead == i2c1_object.pTrTail
      +                          )
  4590  0247  0821               	movf	low ((_i2c1_object| 0+1)),w
  4591  0248  0620               	xorwf	_i2c1_object,w
  4592  0249  1D03               	skipz
  4593  024A  2A52               	goto	l1923
  4594                           
  4595                           ;mcc_generated_files/i2c1.c: 683:         {;mcc_generated_files/i2c1.c: 685:            
      +                           i2c1_object.trStatus.s.full = 1;
  4596  024B  1422               	bsf	_i2c1_object+2,0
  4597  024C  2A52               	goto	l1923
  4598  024D                     l1921:	
  4599                           
  4600                           ;mcc_generated_files/i2c1.c: 690:     {;mcc_generated_files/i2c1.c: 691:         *pflag 
      +                          = I2C1_MESSAGE_FAIL;
  4601  024D  085D               	movf	I2C1_MasterTRBInsert@pflag,w
  4602  024E  0086               	movwf	6
  4603  024F  0187               	clrf	7
  4604  0250  0181               	clrf	1
  4605  0251  0A81               	incf	1,f
  4606  0252                     l1923:	
  4607                           
  4608                           ;mcc_generated_files/i2c1.c: 695:     if (*pflag == I2C1_MESSAGE_PENDING)
  4609  0252  085D               	movf	I2C1_MasterTRBInsert@pflag,w
  4610  0253  0086               	movwf	6
  4611  0254  0187               	clrf	7
  4612  0255  3002               	movlw	2
  4613  0256  0601               	xorwf	1,w
  4614  0257  1D03               	btfss	3,2
  4615  0258  0008               	return
  4616                           
  4617                           ;mcc_generated_files/i2c1.c: 696:     {;mcc_generated_files/i2c1.c: 697:         I2C1_Wa
      +                          itForLastPacketToComplete();
  4618  0259  3183  236E         	fcall	_I2C1_WaitForLastPacketToComplete
  4619                           
  4620                           ;mcc_generated_files/i2c1.c: 702:         PIR3bits.SSP1IF = 1;
  4621  025B  014E               	movlb	14	; select bank14
  4622  025C  140F               	bsf	15,0	;volatile
  4623  025D  0008               	return
  4624  025E                     __end_of_I2C1_MasterTRBInsert:	
  4625                           
  4626                           	psect	text9
  4627  036E                     __ptext9:	
  4628 ;; *************** function _I2C1_WaitForLastPacketToComplete *****************
  4629 ;; Defined at:
  4630 ;;		line 644 in file "mcc_generated_files/i2c1.c"
  4631 ;; Parameters:    Size  Location     Type
  4632 ;;		None
  4633 ;; Auto vars:     Size  Location     Type
  4634 ;;		None
  4635 ;; Return value:  Size  Location     Type
  4636 ;;                  1    wreg      void 
  4637 ;; Registers used:
  4638 ;;		wreg, status,2, status,0
  4639 ;; Tracked objects:
  4640 ;;		On entry : 0/0
  4641 ;;		On exit  : 0/0
  4642 ;;		Unchanged: 0/0
  4643 ;; Data sizes:     COMMON   BANK0   BANK1   BANK2   BANK3   BANK4   BANK5   BANK6   BANK7   BANK8   BANK9  BANK10  BANK1
      +1  BANK12  BANK13  BANK14  BANK15  BANK16  BANK17  BANK18  BANK19  BANK20  BANK21  BANK22  BANK23  BANK24  BANK25
  4644 ;;      Params:         0       0       0       0       0       0       0       0       0       0       0       0       
      +0       0       0       0       0       0       0       0       0       0       0       0       0       0       0
  4645 ;;      Locals:         0       0       0       0       0       0       0       0       0       0       0       0       
      +0       0       0       0       0       0       0       0       0       0       0       0       0       0       0
  4646 ;;      Temps:          0       0       0       0       0       0       0       0       0       0       0       0       
      +0       0       0       0       0       0       0       0       0       0       0       0       0       0       0
  4647 ;;      Totals:         0       0       0       0       0       0       0       0       0       0       0       0       
      +0       0       0       0       0       0       0       0       0       0       0       0       0       0       0
  4648 ;;Total ram usage:        0 bytes
  4649 ;; Hardware stack levels used:    1
  4650 ;; Hardware stack levels required when called:    3
  4651 ;; This function calls:
  4652 ;;		Nothing
  4653 ;; This function is called by:
  4654 ;;		_I2C1_MasterTRBInsert
  4655 ;; This function uses a non-reentrant model
  4656 ;;
  4657                           
  4658                           
  4659                           ;psect for function _I2C1_WaitForLastPacketToComplete
  4660  036E                     _I2C1_WaitForLastPacketToComplete:	
  4661  036E                     l1831:	
  4662                           ;mcc_generated_files/i2c1.c: 646:     while(i2c1_state != S_MASTER_IDLE)
  4663                           
  4664                           ;incstack = 0
  4665                           ; Regs used in _I2C1_WaitForLastPacketToComplete: [wreg+status,2+status,0]
  4666                           
  4667                           
  4668                           ;mcc_generated_files/i2c1.c: 646:     while(i2c1_state != S_MASTER_IDLE)
  4669  036E  0873               	movf	_i2c1_state,w
  4670  036F  1903               	btfsc	3,2
  4671  0370  0008               	return
  4672  0371  2B6E               	goto	l1831
  4673  0372                     __end_of_I2C1_WaitForLastPacketToComplete:	
  4674                           
  4675                           	psect	intentry
  4676  0004                     __pintentry:	
  4677 ;; *************** function _INTERRUPT_InterruptManager *****************
  4678 ;; Defined at:
  4679 ;;		line 52 in file "mcc_generated_files/interrupt_manager.c"
  4680 ;; Parameters:    Size  Location     Type
  4681 ;;		None
  4682 ;; Auto vars:     Size  Location     Type
  4683 ;;		None
  4684 ;; Return value:  Size  Location     Type
  4685 ;;                  1    wreg      void 
  4686 ;; Registers used:
  4687 ;;		wreg, fsr0l, fsr0h, fsr1l, fsr1h, status,2, status,0, pclath, cstack
  4688 ;; Tracked objects:
  4689 ;;		On entry : 0/0
  4690 ;;		On exit  : 0/0
  4691 ;;		Unchanged: 0/0
  4692 ;; Data sizes:     COMMON   BANK0   BANK1   BANK2   BANK3   BANK4   BANK5   BANK6   BANK7   BANK8   BANK9  BANK10  BANK1
      +1  BANK12  BANK13  BANK14  BANK15  BANK16  BANK17  BANK18  BANK19  BANK20  BANK21  BANK22  BANK23  BANK24  BANK25
  4693 ;;      Params:         0       0       0       0       0       0       0       0       0       0       0       0       
      +0       0       0       0       0       0       0       0       0       0       0       0       0       0       0
  4694 ;;      Locals:         0       0       0       0       0       0       0       0       0       0       0       0       
      +0       0       0       0       0       0       0       0       0       0       0       0       0       0       0
  4695 ;;      Temps:          0       0       0       0       0       0       0       0       0       0       0       0       
      +0       0       0       0       0       0       0       0       0       0       0       0       0       0       0
  4696 ;;      Totals:         0       0       0       0       0       0       0       0       0       0       0       0       
      +0       0       0       0       0       0       0       0       0       0       0       0       0       0       0
  4697 ;;Total ram usage:        0 bytes
  4698 ;; Hardware stack levels used:    1
  4699 ;; Hardware stack levels required when called:    2
  4700 ;; This function calls:
  4701 ;;		_I2C1_BusCollisionISR
  4702 ;;		_I2C1_ISR
  4703 ;; This function is called by:
  4704 ;;		Interrupt level 1
  4705 ;; This function uses a non-reentrant model
  4706 ;;
  4707                           
  4708  0004                     _INTERRUPT_InterruptManager:	
  4709                           
  4710                           ;incstack = 0
  4711  0004  147E               	bsf	126,0	;set compiler interrupt flag (level 1)
  4712                           
  4713                           ; Regs used in _INTERRUPT_InterruptManager: [wreg-fsr1h+status,2+status,0+pclath+cstack]
  4714  0005  3180               	pagesel	$
  4715                           
  4716                           ;mcc_generated_files/interrupt_manager.c: 55:     if(INTCONbits.PEIE == 1)
  4717  0006  1F0B               	btfss	11,6	;volatile
  4718  0007  2815               	goto	i1l21
  4719                           
  4720                           ;mcc_generated_files/interrupt_manager.c: 56:     {;mcc_generated_files/interrupt_manage
      +                          r.c: 57:         if(PIE3bits.BCL1IE == 1 && PIR3bits.BCL1IF == 1)
  4721  0008  014E               	movlb	14	; select bank14
  4722  0009  1899               	btfsc	25,1	;volatile
  4723  000A  1C8F               	btfss	15,1	;volatile
  4724  000B  2810               	goto	i1l16
  4725                           
  4726                           ;mcc_generated_files/interrupt_manager.c: 58:         {;mcc_generated_files/interrupt_ma
      +                          nager.c: 59:             I2C1_BusCollisionISR();
  4727  000C  3183  2372  3180   	fcall	_I2C1_BusCollisionISR
  4728                           
  4729                           ;mcc_generated_files/interrupt_manager.c: 60:         }
  4730  000F  2815               	goto	i1l21
  4731  0010                     i1l16:	
  4732                           ;mcc_generated_files/interrupt_manager.c: 61:         else if(PIE3bits.SSP1IE == 1 && PI
      +                          R3bits.SSP1IF == 1)
  4733                           
  4734  0010  1819               	btfsc	25,0	;volatile
  4735  0011  1C0F               	btfss	15,0	;volatile
  4736  0012  2815               	goto	i1l21
  4737                           
  4738                           ;mcc_generated_files/interrupt_manager.c: 62:         {;mcc_generated_files/interrupt_ma
      +                          nager.c: 63:             I2C1_ISR();
  4739  0013  3180  202A         	fcall	_I2C1_ISR
  4740  0015                     i1l21:	
  4741                           ;mcc_generated_files/interrupt_manager.c: 69:     }
  4742                           
  4743                           ;mcc_generated_files/interrupt_manager.c: 64:         }
  4744                           
  4745  0015  107E               	bcf	126,0	;clear compiler interrupt flag (level 1)
  4746  0016  0009               	retfie
  4747  0017                     __end_of_INTERRUPT_InterruptManager:	
  4748                           
  4749                           	psect	text11
  4750  002A                     __ptext11:	
  4751 ;; *************** function _I2C1_ISR *****************
  4752 ;; Defined at:
  4753 ;;		line 235 in file "mcc_generated_files/i2c1.c"
  4754 ;; Parameters:    Size  Location     Type
  4755 ;;		None
  4756 ;; Auto vars:     Size  Location     Type
  4757 ;;		None
  4758 ;; Return value:  Size  Location     Type
  4759 ;;                  1    wreg      void 
  4760 ;; Registers used:
  4761 ;;		wreg, fsr0l, fsr0h, fsr1l, fsr1h, status,2, status,0, pclath, cstack
  4762 ;; Tracked objects:
  4763 ;;		On entry : 0/0
  4764 ;;		On exit  : 0/0
  4765 ;;		Unchanged: 0/0
  4766 ;; Data sizes:     COMMON   BANK0   BANK1   BANK2   BANK3   BANK4   BANK5   BANK6   BANK7   BANK8   BANK9  BANK10  BANK1
      +1  BANK12  BANK13  BANK14  BANK15  BANK16  BANK17  BANK18  BANK19  BANK20  BANK21  BANK22  BANK23  BANK24  BANK25
  4767 ;;      Params:         0       0       0       0       0       0       0       0       0       0       0       0       
      +0       0       0       0       0       0       0       0       0       0       0       0       0       0       0
  4768 ;;      Locals:         0       0       0       0       0       0       0       0       0       0       0       0       
      +0       0       0       0       0       0       0       0       0       0       0       0       0       0       0
  4769 ;;      Temps:          4       0       0       0       0       0       0       0       0       0       0       0       
      +0       0       0       0       0       0       0       0       0       0       0       0       0       0       0
  4770 ;;      Totals:         4       0       0       0       0       0       0       0       0       0       0       0       
      +0       0       0       0       0       0       0       0       0       0       0       0       0       0       0
  4771 ;;Total ram usage:        4 bytes
  4772 ;; Hardware stack levels used:    1
  4773 ;; Hardware stack levels required when called:    1
  4774 ;; This function calls:
  4775 ;;		_I2C1_FunctionComplete
  4776 ;;		_I2C1_Stop
  4777 ;; This function is called by:
  4778 ;;		_INTERRUPT_InterruptManager
  4779 ;; This function uses a non-reentrant model
  4780 ;;
  4781                           
  4782                           
  4783                           ;psect for function _I2C1_ISR
  4784  002A                     _I2C1_ISR:	
  4785                           
  4786                           ;mcc_generated_files/i2c1.c: 238:     static uint8_t *pi2c_buf_ptr;;mcc_generated_files/
      +                          i2c1.c: 239:     static uint16_t i2c_address = 0;;mcc_generated_files/i2c1.c: 240:     s
      +                          tatic uint8_t i2c_bytes_left = 0;;mcc_generated_files/i2c1.c: 241:     static uint8_t i2
      +                          c_10bit_address_restart = 0;;mcc_generated_files/i2c1.c: 243:     PIR3bits.SSP1IF = 0;
  4787                           
  4788                           ;incstack = 0
  4789                           ; Regs used in _I2C1_ISR: [wreg-fsr1h+status,2+status,0+pclath+cstack]
  4790  002A  014E               	movlb	14	; select bank14
  4791  002B  100F               	bcf	15,0	;volatile
  4792                           
  4793                           ;mcc_generated_files/i2c1.c: 247:     if(SSP1CON1bits.WCOL)
  4794  002C  0143               	movlb	3	; select bank3
  4795  002D  1F90               	btfss	16,7	;volatile
  4796  002E  293C               	goto	i1l2065
  4797                           
  4798                           ;mcc_generated_files/i2c1.c: 248:     {;mcc_generated_files/i2c1.c: 250:         SSP1CON
      +                          1bits.WCOL = 0;
  4799  002F  1390               	bcf	16,7	;volatile
  4800                           
  4801                           ;mcc_generated_files/i2c1.c: 251:         i2c1_state = S_MASTER_IDLE;
  4802  0030  01F3               	clrf	_i2c1_state
  4803                           
  4804                           ;mcc_generated_files/i2c1.c: 252:         *(p_i2c1_current->pTrFlag) = I2C1_MESSAGE_FAIL
      +                          ;
  4805  0031  0870               	movf	_p_i2c1_current,w
  4806  0032  3E02               	addlw	2
  4807  0033  0086               	movwf	6
  4808  0034  0187               	clrf	7
  4809  0035  0801               	movf	1,w
  4810  0036  0086               	movwf	6
  4811  0037  0187               	clrf	7
  4812  0038  0181               	clrf	1
  4813  0039  0A81               	incf	1,f
  4814                           
  4815                           ;mcc_generated_files/i2c1.c: 255:         p_i2c1_current = ((void*)0);
  4816  003A  01F0               	clrf	_p_i2c1_current
  4817  003B  0008               	return
  4818  003C                     i1l124:	
  4819                           ;mcc_generated_files/i2c1.c: 262:     {;mcc_generated_files/i2c1.c: 263:         case S_
      +                          MASTER_IDLE:
  4820                           
  4821                           
  4822                           ;mcc_generated_files/i2c1.c: 265:             if(i2c1_object.trStatus.s.empty != 1)
  4823  003C  0140               	movlb	0	; select bank0
  4824  003D  18A2               	btfsc	_i2c1_object+2,1
  4825  003E  0008               	return
  4826                           
  4827                           ;mcc_generated_files/i2c1.c: 266:             {;mcc_generated_files/i2c1.c: 268:        
      +                                   p_i2c1_current = i2c1_object.pTrHead;
  4828  003F  0821               	movf	low ((_i2c1_object| 0+1)),w
  4829  0040  00F8               	movwf	??_I2C1_ISR
  4830  0041  0878               	movf	??_I2C1_ISR,w
  4831  0042  00F0               	movwf	_p_i2c1_current
  4832                           
  4833                           ;mcc_generated_files/i2c1.c: 269:                 i2c1_trb_count = i2c1_object.pTrHead->
      +                          count;
  4834  0043  0821               	movf	low ((_i2c1_object| 0+1)),w
  4835  0044  0086               	movwf	6
  4836  0045  0187               	clrf	7
  4837  0046  0801               	movf	1,w
  4838  0047  00F8               	movwf	??_I2C1_ISR
  4839  0048  0878               	movf	??_I2C1_ISR,w
  4840  0049  00F2               	movwf	_i2c1_trb_count
  4841                           
  4842                           ;mcc_generated_files/i2c1.c: 270:                 p_i2c1_trb_current = i2c1_object.pTrHe
      +                          ad->ptrb_list;
  4843  004A  0821               	movf	low ((_i2c1_object| 0+1)),w
  4844  004B  0086               	movwf	6
  4845  004C  0187               	clrf	7
  4846  004D  3F41               	moviw [1]fsr1
  4847  004E  00F1               	movwf	_p_i2c1_trb_current
  4848                           
  4849                           ;mcc_generated_files/i2c1.c: 272:                 i2c1_object.pTrHead++;
  4850  004F  3003               	movlw	3
  4851  0050  00F8               	movwf	??_I2C1_ISR
  4852  0051  0878               	movf	??_I2C1_ISR,w
  4853  0052  07A1               	addwf	low ((_i2c1_object| 0+1)),f
  4854                           
  4855                           ;mcc_generated_files/i2c1.c: 275:                 if(i2c1_object.pTrHead == (i2c1_tr_que
      +                          ue + 1))
  4856  0053  0821               	movf	low ((_i2c1_object| 0+1)),w
  4857  0054  3A5C               	xorlw	(low ((_i2c1_tr_queue| 0+3)))& (0+255)
  4858  0055  1D03               	skipz
  4859  0056  285B               	goto	i1l1953
  4860                           
  4861                           ;mcc_generated_files/i2c1.c: 276:                 {;mcc_generated_files/i2c1.c: 278:    
      +                                           i2c1_object.pTrHead = i2c1_tr_queue;
  4862  0057  3059               	movlw	(low (_i2c1_tr_queue| 0))& (0+255)
  4863  0058  00F8               	movwf	??_I2C1_ISR
  4864  0059  0878               	movf	??_I2C1_ISR,w
  4865  005A  00A1               	movwf	low ((_i2c1_object| 0+1))
  4866  005B                     i1l1953:	
  4867                           
  4868                           ;mcc_generated_files/i2c1.c: 283:                 i2c1_object.trStatus.s.full = 0;
  4869  005B  1022               	bcf	_i2c1_object+2,0
  4870                           
  4871                           ;mcc_generated_files/i2c1.c: 286:                 if(i2c1_object.pTrHead == i2c1_object.
      +                          pTrTail)
  4872  005C  0821               	movf	low ((_i2c1_object| 0+1)),w
  4873  005D  0620               	xorwf	_i2c1_object,w
  4874  005E  1903               	btfsc	3,2
  4875                           
  4876                           ;mcc_generated_files/i2c1.c: 287:                 {;mcc_generated_files/i2c1.c: 289:    
      +                                           i2c1_object.trStatus.s.empty = 1;
  4877  005F  14A2               	bsf	_i2c1_object+2,1
  4878                           
  4879                           ;mcc_generated_files/i2c1.c: 293:                 SSP1CON2bits.SEN = 1;
  4880                           
  4881                           ;mcc_generated_files/i2c1.c: 290:                 }
  4882  0060  0143               	movlb	3	; select bank3
  4883  0061  1411               	bsf	17,0	;volatile
  4884  0062                     i1l1957:	
  4885                           
  4886                           ;mcc_generated_files/i2c1.c: 296:                 i2c1_state = S_MASTER_SEND_ADDR;
  4887  0062  3002               	movlw	2
  4888  0063  00F8               	movwf	??_I2C1_ISR
  4889  0064  0878               	movf	??_I2C1_ISR,w
  4890  0065  00F3               	movwf	_i2c1_state
  4891  0066  0008               	return
  4892  0067                     i1l129:	
  4893                           ;mcc_generated_files/i2c1.c: 301:         case S_MASTER_RESTART:
  4894                           
  4895  0067  28EA               	goto	L1
  4896  0068                     i1l130:	
  4897                           ;mcc_generated_files/i2c1.c: 313:         case S_MASTER_SEND_ADDR_10BIT_LSB:
  4898                           
  4899                           ;mcc_generated_files/i2c1.c: 306:             SSP1CON2bits.RSEN = 1;
  4900                           
  4901                           
  4902                           ;mcc_generated_files/i2c1.c: 315:             if(SSP1CON2bits.ACKSTAT)
  4903  0068  1F11               	btfss	17,6	;volatile
  4904  0069  2873               	goto	i1l1965
  4905                           
  4906                           ;mcc_generated_files/i2c1.c: 316:             {;mcc_generated_files/i2c1.c: 317:        
      +                                   i2c1_object.i2cErrors++;
  4907  006A  3001               	movlw	1
  4908  006B  00F8               	movwf	??_I2C1_ISR
  4909  006C  0878               	movf	??_I2C1_ISR,w
  4910  006D  0140               	movlb	0	; select bank0
  4911  006E  07A4               	addwf	_i2c1_object+4,f
  4912                           
  4913                           ;mcc_generated_files/i2c1.c: 318:                 I2C1_Stop(I2C1_MESSAGE_ADDRESS_NO_ACK)
      +                          ;
  4914  006F  3004               	movlw	4
  4915  0070  3182  22E7         	fcall	_I2C1_Stop
  4916                           
  4917                           ;mcc_generated_files/i2c1.c: 319:             }
  4918  0072  0008               	return
  4919  0073                     i1l1965:	
  4920                           
  4921                           ;mcc_generated_files/i2c1.c: 321:             {;mcc_generated_files/i2c1.c: 323:        
      +                                   SSP1BUF = (i2c_address >> 1) & 0x00FF;
  4922  0073  0875               	movf	I2C1_ISR@i2c_address+1,w
  4923  0074  00F9               	movwf	??_I2C1_ISR+1
  4924  0075  0874               	movf	I2C1_ISR@i2c_address,w
  4925  0076  00F8               	movwf	??_I2C1_ISR
  4926  0077  36F9               	lsrf	??_I2C1_ISR+1,f
  4927  0078  0CF8               	rrf	??_I2C1_ISR,f
  4928  0079  0878               	movf	??_I2C1_ISR,w
  4929  007A  008C               	movwf	12	;volatile
  4930                           
  4931                           ;mcc_generated_files/i2c1.c: 326:                 if(i2c_address & 0x01)
  4932  007B  1C74               	btfss	I2C1_ISR@i2c_address,0
  4933  007C  2882               	goto	i1l1971
  4934                           
  4935                           ;mcc_generated_files/i2c1.c: 327:                 {;mcc_generated_files/i2c1.c: 330:    
      +                                           i2c1_state = S_MASTER_10BIT_RESTART;
  4936  007D  300B               	movlw	11
  4937  007E  00F8               	movwf	??_I2C1_ISR
  4938  007F  0878               	movf	??_I2C1_ISR,w
  4939  0080  00F3               	movwf	_i2c1_state
  4940                           
  4941                           ;mcc_generated_files/i2c1.c: 331:                 }
  4942  0081  0008               	return
  4943  0082                     i1l1971:	
  4944                           
  4945                           ;mcc_generated_files/i2c1.c: 333:                 {;mcc_generated_files/i2c1.c: 335:    
      +                                           i2c1_state = S_MASTER_SEND_DATA;
  4946  0082  3003               	movlw	3
  4947  0083  00F8               	movwf	??_I2C1_ISR
  4948  0084  0878               	movf	??_I2C1_ISR,w
  4949  0085  00F3               	movwf	_i2c1_state
  4950  0086  0008               	return
  4951  0087                     i1l135:	
  4952                           ;mcc_generated_files/i2c1.c: 341:         case S_MASTER_10BIT_RESTART:
  4953                           
  4954                           
  4955                           ;mcc_generated_files/i2c1.c: 343:             if(SSP1CON2bits.ACKSTAT)
  4956  0087  1F11               	btfss	17,6	;volatile
  4957  0088  2892               	goto	i1l136
  4958                           
  4959                           ;mcc_generated_files/i2c1.c: 344:             {;mcc_generated_files/i2c1.c: 345:        
      +                                   i2c1_object.i2cErrors++;
  4960  0089  3001               	movlw	1
  4961  008A  00F8               	movwf	??_I2C1_ISR
  4962  008B  0878               	movf	??_I2C1_ISR,w
  4963  008C  0140               	movlb	0	; select bank0
  4964  008D  07A4               	addwf	_i2c1_object+4,f
  4965                           
  4966                           ;mcc_generated_files/i2c1.c: 346:                 I2C1_Stop(I2C1_MESSAGE_ADDRESS_NO_ACK)
      +                          ;
  4967  008E  3004               	movlw	4
  4968  008F  3182  22E7         	fcall	_I2C1_Stop
  4969                           
  4970                           ;mcc_generated_files/i2c1.c: 347:             }
  4971  0091  0008               	return
  4972  0092                     i1l136:	
  4973                           ;mcc_generated_files/i2c1.c: 348:             else
  4974                           
  4975                           
  4976                           ;mcc_generated_files/i2c1.c: 349:             {;mcc_generated_files/i2c1.c: 352:        
      +                                   SSP1CON2bits.RSEN = 1;
  4977  0092  1491               	bsf	17,1	;volatile
  4978                           
  4979                           ;mcc_generated_files/i2c1.c: 356:                 i2c_address = 0x00F0 | ((i2c_address >
      +                          > 8) & 0x0006);
  4980  0093  0875               	movf	I2C1_ISR@i2c_address+1,w
  4981  0094  00F9               	movwf	??_I2C1_ISR+1
  4982  0095  0874               	movf	I2C1_ISR@i2c_address,w
  4983  0096  00F8               	movwf	??_I2C1_ISR
  4984  0097  0879               	movf	??_I2C1_ISR+1,w
  4985  0098  00F8               	movwf	??_I2C1_ISR
  4986  0099  01F9               	clrf	??_I2C1_ISR+1
  4987  009A  3006               	movlw	6
  4988  009B  0578               	andwf	??_I2C1_ISR,w
  4989  009C  00FA               	movwf	??_I2C1_ISR+2
  4990  009D  3000               	movlw	0
  4991  009E  0579               	andwf	??_I2C1_ISR+1,w
  4992  009F  00FB               	movwf	??_I2C1_ISR+3
  4993  00A0  30F0               	movlw	240
  4994  00A1  047A               	iorwf	??_I2C1_ISR+2,w
  4995  00A2  00F4               	movwf	I2C1_ISR@i2c_address
  4996  00A3  3000               	movlw	0
  4997  00A4  047B               	iorwf	??_I2C1_ISR+3,w
  4998  00A5  00F5               	movwf	I2C1_ISR@i2c_address+1
  4999                           
  5000                           ;mcc_generated_files/i2c1.c: 359:                 i2c_address |= 0x0001;
  5001  00A6  1474               	bsf	I2C1_ISR@i2c_address,0
  5002                           
  5003                           ;mcc_generated_files/i2c1.c: 362:                 i2c_10bit_address_restart = 1;
  5004  00A7  0140               	movlb	0	; select bank0
  5005  00A8  01AE               	clrf	I2C1_ISR@i2c_10bit_address_restart
  5006  00A9  0AAE               	incf	I2C1_ISR@i2c_10bit_address_restart,f
  5007  00AA  2862               	goto	i1l1957
  5008  00AB                     i1l1985:	
  5009                           
  5010                           ;mcc_generated_files/i2c1.c: 383:             if(i2c_10bit_address_restart != 1)
  5011  00AB  0140               	movlb	0	; select bank0
  5012  00AC  032E               	decf	I2C1_ISR@i2c_10bit_address_restart,w
  5013  00AD  1903               	btfsc	3,2
  5014  00AE  28C0               	goto	i1l2005
  5015                           
  5016                           ;mcc_generated_files/i2c1.c: 384:             {;mcc_generated_files/i2c1.c: 386:        
      +                                   i2c_address = p_i2c1_trb_current->address;
  5017  00AF  0871               	movf	_p_i2c1_trb_current,w
  5018  00B0  0086               	movwf	6
  5019  00B1  0187               	clrf	7
  5020  00B2  3F40               	moviw [0]fsr1
  5021  00B3  00F4               	movwf	I2C1_ISR@i2c_address
  5022  00B4  3F41               	moviw [1]fsr1
  5023  00B5  00F5               	movwf	I2C1_ISR@i2c_address+1
  5024                           
  5025                           ;mcc_generated_files/i2c1.c: 387:                 pi2c_buf_ptr = p_i2c1_trb_current->pbu
      +                          ffer;
  5026  00B6  0871               	movf	_p_i2c1_trb_current,w
  5027  00B7  0086               	movwf	6
  5028  00B8  0187               	clrf	7
  5029  00B9  3F43               	moviw [3]fsr1
  5030  00BA  00B0               	movwf	I2C1_ISR@pi2c_buf_ptr
  5031                           
  5032                           ;mcc_generated_files/i2c1.c: 388:                 i2c_bytes_left = p_i2c1_trb_current->l
      +                          ength;
  5033  00BB  0871               	movf	_p_i2c1_trb_current,w
  5034  00BC  0086               	movwf	6
  5035  00BD  0187               	clrf	7
  5036  00BE  3F42               	moviw [2]fsr1
  5037  00BF  00AF               	movwf	I2C1_ISR@i2c_bytes_left
  5038  00C0                     i1l2005:	
  5039                           
  5040                           ;mcc_generated_files/i2c1.c: 412:             {;mcc_generated_files/i2c1.c: 414:        
      +                                   SSP1BUF = i2c_address;
  5041  00C0  0874               	movf	I2C1_ISR@i2c_address,w
  5042  00C1  0143               	movlb	3	; select bank3
  5043  00C2  008C               	movwf	12	;volatile
  5044                           
  5045                           ;mcc_generated_files/i2c1.c: 415:                 if(i2c_address & 0x01)
  5046  00C3  1C74               	btfss	I2C1_ISR@i2c_address,0
  5047  00C4  2882               	goto	i1l1971
  5048                           
  5049                           ;mcc_generated_files/i2c1.c: 416:                 {;mcc_generated_files/i2c1.c: 418:    
      +                                           i2c1_state = S_MASTER_ACK_ADDR;
  5050  00C5  3005               	movlw	5
  5051  00C6  00F8               	movwf	??_I2C1_ISR
  5052  00C7  0878               	movf	??_I2C1_ISR,w
  5053  00C8  00F3               	movwf	_i2c1_state
  5054                           
  5055                           ;mcc_generated_files/i2c1.c: 419:                 }
  5056  00C9  0008               	return
  5057  00CA                     i1l146:	
  5058                           ;mcc_generated_files/i2c1.c: 428:         case S_MASTER_SEND_DATA:
  5059                           
  5060                           
  5061                           ;mcc_generated_files/i2c1.c: 431:             if(SSP1CON2bits.ACKSTAT)
  5062  00CA  1F11               	btfss	17,6	;volatile
  5063  00CB  28D7               	goto	i1l2019
  5064                           
  5065                           ;mcc_generated_files/i2c1.c: 432:             {;mcc_generated_files/i2c1.c: 434:        
      +                                   i2c1_object.i2cErrors++;
  5066  00CC  3001               	movlw	1
  5067  00CD  00F8               	movwf	??_I2C1_ISR
  5068  00CE  0878               	movf	??_I2C1_ISR,w
  5069  00CF  0140               	movlb	0	; select bank0
  5070  00D0  07A4               	addwf	_i2c1_object+4,f
  5071                           
  5072                           ;mcc_generated_files/i2c1.c: 437:                 SSP1CON2bits.ACKSTAT = 0;
  5073  00D1  0143               	movlb	3	; select bank3
  5074  00D2  1311               	bcf	17,6	;volatile
  5075                           
  5076                           ;mcc_generated_files/i2c1.c: 440:                 I2C1_Stop(I2C1_DATA_NO_ACK);
  5077  00D3  3005               	movlw	5
  5078  00D4  3182  22E7         	fcall	_I2C1_Stop
  5079                           
  5080                           ;mcc_generated_files/i2c1.c: 442:             }
  5081  00D6  0008               	return
  5082  00D7                     i1l2019:	
  5083                           
  5084                           ;mcc_generated_files/i2c1.c: 444:             {;mcc_generated_files/i2c1.c: 446:        
      +                                   if(i2c_bytes_left-- == 0U)
  5085  00D7  3001               	movlw	1
  5086  00D8  0140               	movlb	0	; select bank0
  5087  00D9  02AF               	subwf	I2C1_ISR@i2c_bytes_left,f
  5088  00DA  0A2F               	incf	I2C1_ISR@i2c_bytes_left,w
  5089  00DB  1D03               	btfss	3,2
  5090  00DC  28EC               	goto	i1l2027
  5091                           
  5092                           ;mcc_generated_files/i2c1.c: 447:                 {;mcc_generated_files/i2c1.c: 451:    
      +                                           p_i2c1_trb_current++;
  5093  00DD  3004               	movlw	4
  5094  00DE  00F8               	movwf	??_I2C1_ISR
  5095  00DF  0878               	movf	??_I2C1_ISR,w
  5096  00E0  07F1               	addwf	_p_i2c1_trb_current,f
  5097                           
  5098                           ;mcc_generated_files/i2c1.c: 454:                     if(--i2c1_trb_count == 0)
  5099  00E1  3001               	movlw	1
  5100  00E2  02F2               	subwf	_i2c1_trb_count,f
  5101  00E3  1D03               	btfss	3,2
  5102  00E4  28E9               	goto	i1l150
  5103                           
  5104                           ;mcc_generated_files/i2c1.c: 455:                     {;mcc_generated_files/i2c1.c: 456:
      +                                                   I2C1_Stop(I2C1_MESSAGE_COMPLETE);
  5105  00E5  3000               	movlw	0
  5106  00E6  3182  22E7         	fcall	_I2C1_Stop
  5107                           
  5108                           ;mcc_generated_files/i2c1.c: 457:                     }
  5109  00E8  0008               	return
  5110  00E9                     i1l150:	
  5111                           ;mcc_generated_files/i2c1.c: 458:                     else
  5112                           
  5113                           
  5114                           ;mcc_generated_files/i2c1.c: 459:                     {;mcc_generated_files/i2c1.c: 466:
      +                                                   SSP1CON2bits.RSEN = 1;
  5115  00E9  0143               	movlb	3	; select bank3
  5116  00EA                     L1:	
  5117  00EA  1491               	bsf	17,1	;volatile
  5118  00EB  2862               	goto	i1l1957
  5119  00EC                     i1l2027:	
  5120                           
  5121                           ;mcc_generated_files/i2c1.c: 474:                 {;mcc_generated_files/i2c1.c: 476:    
      +                                           SSP1BUF = *pi2c_buf_ptr++;
  5122  00EC  0830               	movf	I2C1_ISR@pi2c_buf_ptr,w
  5123  00ED  0086               	movwf	6
  5124  00EE  0187               	clrf	7
  5125  00EF  0801               	movf	1,w
  5126  00F0  0143               	movlb	3	; select bank3
  5127  00F1  008C               	movwf	12	;volatile
  5128  00F2  3001               	movlw	1
  5129  00F3  00F8               	movwf	??_I2C1_ISR
  5130  00F4  0878               	movf	??_I2C1_ISR,w
  5131  00F5  0140               	movlb	0	; select bank0
  5132  00F6  07B0               	addwf	I2C1_ISR@pi2c_buf_ptr,f
  5133  00F7  0008               	return
  5134  00F8                     i1l153:	
  5135                           ;mcc_generated_files/i2c1.c: 481:         case S_MASTER_ACK_ADDR:
  5136                           
  5137                           
  5138                           ;mcc_generated_files/i2c1.c: 484:             if(SSP1CON2bits.ACKSTAT)
  5139  00F8  1F11               	btfss	17,6	;volatile
  5140  00F9  2905               	goto	i1l154
  5141                           
  5142                           ;mcc_generated_files/i2c1.c: 485:             {;mcc_generated_files/i2c1.c: 488:        
      +                                   i2c1_object.i2cErrors++;
  5143  00FA  3001               	movlw	1
  5144  00FB  00F8               	movwf	??_I2C1_ISR
  5145  00FC  0878               	movf	??_I2C1_ISR,w
  5146  00FD  0140               	movlb	0	; select bank0
  5147  00FE  07A4               	addwf	_i2c1_object+4,f
  5148                           
  5149                           ;mcc_generated_files/i2c1.c: 491:                 I2C1_Stop(I2C1_MESSAGE_ADDRESS_NO_ACK)
      +                          ;
  5150  00FF  3004               	movlw	4
  5151  0100  3182  22E7         	fcall	_I2C1_Stop
  5152                           
  5153                           ;mcc_generated_files/i2c1.c: 494:                 SSP1CON2bits.ACKSTAT = 0;
  5154  0102  0143               	movlb	3	; select bank3
  5155  0103  1311               	bcf	17,6	;volatile
  5156                           
  5157                           ;mcc_generated_files/i2c1.c: 495:             }
  5158  0104  0008               	return
  5159  0105                     i1l154:	
  5160                           ;mcc_generated_files/i2c1.c: 496:             else
  5161                           
  5162                           
  5163                           ;mcc_generated_files/i2c1.c: 497:             {;mcc_generated_files/i2c1.c: 498:        
      +                                   SSP1CON2bits.RCEN = 1;
  5164  0105  1591               	bsf	17,3	;volatile
  5165                           
  5166                           ;mcc_generated_files/i2c1.c: 499:                 i2c1_state = S_MASTER_ACK_RCV_DATA;
  5167  0106  3008               	movlw	8
  5168  0107  00F8               	movwf	??_I2C1_ISR
  5169  0108  0878               	movf	??_I2C1_ISR,w
  5170  0109  00F3               	movwf	_i2c1_state
  5171  010A  0008               	return
  5172  010B                     i1l2039:	
  5173                           
  5174                           ;mcc_generated_files/i2c1.c: 508:             i2c1_state = S_MASTER_ACK_RCV_DATA;
  5175  010B  3008               	movlw	8
  5176  010C  00F8               	movwf	??_I2C1_ISR
  5177  010D  0878               	movf	??_I2C1_ISR,w
  5178  010E  00F3               	movwf	_i2c1_state
  5179                           
  5180                           ;mcc_generated_files/i2c1.c: 511:             SSP1CON2bits.RCEN = 1;
  5181  010F  1591               	bsf	17,3	;volatile
  5182                           
  5183                           ;mcc_generated_files/i2c1.c: 513:             break;
  5184  0110  0008               	return
  5185  0111                     i1l2043:	
  5186                           
  5187                           ;mcc_generated_files/i2c1.c: 518:             *pi2c_buf_ptr++ = SSP1BUF;
  5188  0111  080C               	movf	12,w	;volatile
  5189  0112  00F8               	movwf	??_I2C1_ISR
  5190  0113  0140               	movlb	0	; select bank0
  5191  0114  0830               	movf	I2C1_ISR@pi2c_buf_ptr,w
  5192  0115  0086               	movwf	6
  5193  0116  0187               	clrf	7
  5194  0117  0878               	movf	??_I2C1_ISR,w
  5195  0118  0081               	movwf	1
  5196  0119  3001               	movlw	1
  5197  011A  00F8               	movwf	??_I2C1_ISR
  5198  011B  0878               	movf	??_I2C1_ISR,w
  5199  011C  07B0               	addwf	I2C1_ISR@pi2c_buf_ptr,f
  5200                           
  5201                           ;mcc_generated_files/i2c1.c: 521:             if(--i2c_bytes_left)
  5202  011D  3001               	movlw	1
  5203  011E  02AF               	subwf	I2C1_ISR@i2c_bytes_left,f
  5204  011F  1903               	btfsc	3,2
  5205  0120  2928               	goto	i1l158
  5206                           
  5207                           ;mcc_generated_files/i2c1.c: 522:             {;mcc_generated_files/i2c1.c: 528:        
      +                                   SSP1CON2bits.ACKDT = 0;
  5208  0121  0143               	movlb	3	; select bank3
  5209  0122  1291               	bcf	17,5	;volatile
  5210                           
  5211                           ;mcc_generated_files/i2c1.c: 531:                 i2c1_state = S_MASTER_RCV_DATA;
  5212  0123  3006               	movlw	6
  5213  0124  00F8               	movwf	??_I2C1_ISR
  5214  0125  0878               	movf	??_I2C1_ISR,w
  5215  0126  00F3               	movwf	_i2c1_state
  5216                           
  5217                           ;mcc_generated_files/i2c1.c: 532:             }
  5218  0127  292C               	goto	i1l2055
  5219  0128                     i1l158:	
  5220                           ;mcc_generated_files/i2c1.c: 533:             else
  5221                           
  5222                           
  5223                           ;mcc_generated_files/i2c1.c: 534:             {;mcc_generated_files/i2c1.c: 538:        
      +                                   SSP1CON2bits.ACKDT = 1;
  5224  0128  0143               	movlb	3	; select bank3
  5225  0129  1691               	bsf	17,5	;volatile
  5226                           
  5227                           ;mcc_generated_files/i2c1.c: 540:                 I2C1_FunctionComplete();
  5228  012A  3182  22FE         	fcall	_I2C1_FunctionComplete
  5229  012C                     i1l2055:	
  5230                           
  5231                           ;mcc_generated_files/i2c1.c: 544:             SSP1CON2bits.ACKEN = 1;
  5232  012C  0143               	movlb	3	; select bank3
  5233  012D  1611               	bsf	17,4	;volatile
  5234                           
  5235                           ;mcc_generated_files/i2c1.c: 545:             break;
  5236  012E  0008               	return
  5237  012F                     i1l2057:	
  5238                           
  5239                           ;mcc_generated_files/i2c1.c: 551:             I2C1_Stop(I2C1_MESSAGE_COMPLETE);
  5240  012F  3000               	movlw	0
  5241  0130  3182  22E7         	fcall	_I2C1_Stop
  5242                           
  5243                           ;mcc_generated_files/i2c1.c: 552:             break;
  5244  0132  0008               	return
  5245  0133                     i1l2059:	
  5246                           
  5247                           ;mcc_generated_files/i2c1.c: 558:             i2c1_object.i2cErrors++;
  5248  0133  3001               	movlw	1
  5249  0134  00F8               	movwf	??_I2C1_ISR
  5250  0135  0878               	movf	??_I2C1_ISR,w
  5251  0136  0140               	movlb	0	; select bank0
  5252  0137  07A4               	addwf	_i2c1_object+4,f
  5253                           
  5254                           ;mcc_generated_files/i2c1.c: 559:             I2C1_Stop(I2C1_LOST_STATE);
  5255  0138  3006               	movlw	6
  5256  0139  3182  22E7         	fcall	_I2C1_Stop
  5257                           
  5258                           ;mcc_generated_files/i2c1.c: 560:             break;
  5259  013B  0008               	return
  5260  013C                     i1l2065:	
  5261  013C  0873               	movf	_i2c1_state,w
  5262  013D  00F8               	movwf	??_I2C1_ISR
  5263  013E  01F9               	clrf	??_I2C1_ISR+1
  5264                           
  5265                           ; Switch on 2 bytes has been partitioned into a top level switch of size 1, and 1 sub-sw
      +                          itches
  5266                           ; Switch size 1, requested type "simple"
  5267                           ; Number of cases is 1, Range of values is 0 to 0
  5268                           ; switch strategies available:
  5269                           ; Name         Instructions Cycles
  5270                           ; simple_byte            4     3 (average)
  5271                           ; direct_byte            8     6 (fixed)
  5272                           ; jumptable            260     6 (fixed)
  5273                           ;	Chosen strategy is simple_byte
  5274  013F  0879               	movf	??_I2C1_ISR+1,w
  5275  0140  3A00               	xorlw	0	; case 0
  5276  0141  1903               	skipnz
  5277  0142  2944               	goto	i1l2175
  5278  0143  2933               	goto	i1l2059
  5279  0144                     i1l2175:	
  5280                           
  5281                           ; Switch size 1, requested type "simple"
  5282                           ; Number of cases is 11, Range of values is 0 to 11
  5283                           ; switch strategies available:
  5284                           ; Name         Instructions Cycles
  5285                           ; direct_byte           30     6 (fixed)
  5286                           ; simple_byte           34    18 (average)
  5287                           ; jumptable            260     6 (fixed)
  5288                           ;	Chosen strategy is simple_byte
  5289  0144  0878               	movf	??_I2C1_ISR,w
  5290  0145  3A00               	xorlw	0	; case 0
  5291  0146  1903               	skipnz
  5292  0147  283C               	goto	i1l124
  5293  0148  3A01               	xorlw	1	; case 1
  5294  0149  1903               	skipnz
  5295  014A  2867               	goto	i1l129
  5296  014B  3A03               	xorlw	3	; case 2
  5297  014C  1903               	skipnz
  5298  014D  28AB               	goto	i1l1985
  5299  014E  3A01               	xorlw	1	; case 3
  5300  014F  1903               	skipnz
  5301  0150  28CA               	goto	i1l146
  5302  0151  3A07               	xorlw	7	; case 4
  5303  0152  1903               	skipnz
  5304  0153  292F               	goto	i1l2057
  5305  0154  3A01               	xorlw	1	; case 5
  5306  0155  1903               	skipnz
  5307  0156  28F8               	goto	i1l153
  5308  0157  3A03               	xorlw	3	; case 6
  5309  0158  1903               	skipnz
  5310  0159  290B               	goto	i1l2039
  5311  015A  3A01               	xorlw	1	; case 7
  5312  015B  1903               	skipnz
  5313  015C  292F               	goto	i1l2057
  5314  015D  3A0F               	xorlw	15	; case 8
  5315  015E  1903               	skipnz
  5316  015F  2911               	goto	i1l2043
  5317  0160  3A02               	xorlw	2	; case 10
  5318  0161  1903               	skipnz
  5319  0162  2868               	goto	i1l130
  5320  0163  3A01               	xorlw	1	; case 11
  5321  0164  1903               	skipnz
  5322  0165  2887               	goto	i1l135
  5323  0166  2933               	goto	i1l2059
  5324  0167  0008               	return
  5325  0168                     __end_of_I2C1_ISR:	
  5326                           
  5327                           	psect	text12
  5328  02E7                     __ptext12:	
  5329 ;; *************** function _I2C1_Stop *****************
  5330 ;; Defined at:
  5331 ;;		line 583 in file "mcc_generated_files/i2c1.c"
  5332 ;; Parameters:    Size  Location     Type
  5333 ;;  completion_c    1    wreg     enum E10866
  5334 ;; Auto vars:     Size  Location     Type
  5335 ;;  completion_c    1    1[COMMON] enum E10866
  5336 ;; Return value:  Size  Location     Type
  5337 ;;                  1    wreg      void 
  5338 ;; Registers used:
  5339 ;;		wreg, fsr1l, fsr1h, status,2, status,0
  5340 ;; Tracked objects:
  5341 ;;		On entry : 0/0
  5342 ;;		On exit  : 0/0
  5343 ;;		Unchanged: 0/0
  5344 ;; Data sizes:     COMMON   BANK0   BANK1   BANK2   BANK3   BANK4   BANK5   BANK6   BANK7   BANK8   BANK9  BANK10  BANK1
      +1  BANK12  BANK13  BANK14  BANK15  BANK16  BANK17  BANK18  BANK19  BANK20  BANK21  BANK22  BANK23  BANK24  BANK25
  5345 ;;      Params:         0       0       0       0       0       0       0       0       0       0       0       0       
      +0       0       0       0       0       0       0       0       0       0       0       0       0       0       0
  5346 ;;      Locals:         1       0       0       0       0       0       0       0       0       0       0       0       
      +0       0       0       0       0       0       0       0       0       0       0       0       0       0       0
  5347 ;;      Temps:          1       0       0       0       0       0       0       0       0       0       0       0       
      +0       0       0       0       0       0       0       0       0       0       0       0       0       0       0
  5348 ;;      Totals:         2       0       0       0       0       0       0       0       0       0       0       0       
      +0       0       0       0       0       0       0       0       0       0       0       0       0       0       0
  5349 ;;Total ram usage:        2 bytes
  5350 ;; Hardware stack levels used:    1
  5351 ;; This function calls:
  5352 ;;		Nothing
  5353 ;; This function is called by:
  5354 ;;		_I2C1_ISR
  5355 ;; This function uses a non-reentrant model
  5356 ;;
  5357                           
  5358                           
  5359                           ;psect for function _I2C1_Stop
  5360  02E7                     _I2C1_Stop:	
  5361                           
  5362                           ;incstack = 0
  5363                           ; Regs used in _I2C1_Stop: [wreg+fsr1l+fsr1h+status,2+status,0]
  5364                           ;I2C1_Stop@completion_code stored from wreg
  5365  02E7  00F7               	movwf	I2C1_Stop@completion_code
  5366                           
  5367                           ;mcc_generated_files/i2c1.c: 583: void I2C1_Stop(I2C1_MESSAGE_STATUS completion_code);mc
      +                          c_generated_files/i2c1.c: 584: {;mcc_generated_files/i2c1.c: 586:     SSP1CON2bits.PEN =
      +                           1;
  5368  02E8  0143               	movlb	3	; select bank3
  5369  02E9  1511               	bsf	17,2	;volatile
  5370                           
  5371                           ;mcc_generated_files/i2c1.c: 589:     if (p_i2c1_current->pTrFlag != ((void*)0))
  5372  02EA  0870               	movf	_p_i2c1_current,w
  5373  02EB  3E02               	addlw	2
  5374  02EC  0086               	movwf	6
  5375  02ED  0187               	clrf	7
  5376  02EE  0801               	movf	1,w
  5377  02EF  1903               	btfsc	3,2
  5378  02F0  2AFC               	goto	i1l1899
  5379                           
  5380                           ;mcc_generated_files/i2c1.c: 590:     {;mcc_generated_files/i2c1.c: 592:         *(p_i2c
      +                          1_current->pTrFlag) = completion_code;
  5381  02F1  0877               	movf	I2C1_Stop@completion_code,w
  5382  02F2  00F6               	movwf	??_I2C1_Stop
  5383  02F3  0870               	movf	_p_i2c1_current,w
  5384  02F4  3E02               	addlw	2
  5385  02F5  0086               	movwf	6
  5386  02F6  0187               	clrf	7
  5387  02F7  0801               	movf	1,w
  5388  02F8  0086               	movwf	6
  5389  02F9  0187               	clrf	7
  5390  02FA  0876               	movf	??_I2C1_Stop,w
  5391  02FB  0081               	movwf	1
  5392  02FC                     i1l1899:	
  5393                           
  5394                           ;mcc_generated_files/i2c1.c: 596:     i2c1_state = S_MASTER_IDLE;
  5395  02FC  01F3               	clrf	_i2c1_state
  5396  02FD  0008               	return
  5397  02FE                     __end_of_I2C1_Stop:	
  5398                           
  5399                           	psect	text13
  5400  02FE                     __ptext13:	
  5401 ;; *************** function _I2C1_FunctionComplete *****************
  5402 ;; Defined at:
  5403 ;;		line 565 in file "mcc_generated_files/i2c1.c"
  5404 ;; Parameters:    Size  Location     Type
  5405 ;;		None
  5406 ;; Auto vars:     Size  Location     Type
  5407 ;;		None
  5408 ;; Return value:  Size  Location     Type
  5409 ;;                  1    wreg      void 
  5410 ;; Registers used:
  5411 ;;		wreg, status,2, status,0
  5412 ;; Tracked objects:
  5413 ;;		On entry : 0/0
  5414 ;;		On exit  : 0/0
  5415 ;;		Unchanged: 0/0
  5416 ;; Data sizes:     COMMON   BANK0   BANK1   BANK2   BANK3   BANK4   BANK5   BANK6   BANK7   BANK8   BANK9  BANK10  BANK1
      +1  BANK12  BANK13  BANK14  BANK15  BANK16  BANK17  BANK18  BANK19  BANK20  BANK21  BANK22  BANK23  BANK24  BANK25
  5417 ;;      Params:         0       0       0       0       0       0       0       0       0       0       0       0       
      +0       0       0       0       0       0       0       0       0       0       0       0       0       0       0
  5418 ;;      Locals:         0       0       0       0       0       0       0       0       0       0       0       0       
      +0       0       0       0       0       0       0       0       0       0       0       0       0       0       0
  5419 ;;      Temps:          1       0       0       0       0       0       0       0       0       0       0       0       
      +0       0       0       0       0       0       0       0       0       0       0       0       0       0       0
  5420 ;;      Totals:         1       0       0       0       0       0       0       0       0       0       0       0       
      +0       0       0       0       0       0       0       0       0       0       0       0       0       0       0
  5421 ;;Total ram usage:        1 bytes
  5422 ;; Hardware stack levels used:    1
  5423 ;; This function calls:
  5424 ;;		Nothing
  5425 ;; This function is called by:
  5426 ;;		_I2C1_ISR
  5427 ;; This function uses a non-reentrant model
  5428 ;;
  5429                           
  5430                           
  5431                           ;psect for function _I2C1_FunctionComplete
  5432  02FE                     _I2C1_FunctionComplete:	
  5433                           
  5434                           ;mcc_generated_files/i2c1.c: 569:     p_i2c1_trb_current++;
  5435                           
  5436                           ;incstack = 0
  5437                           ; Regs used in _I2C1_FunctionComplete: [wreg+status,2+status,0]
  5438  02FE  3004               	movlw	4
  5439  02FF  00F6               	movwf	??_I2C1_FunctionComplete
  5440  0300  0876               	movf	??_I2C1_FunctionComplete,w
  5441  0301  07F1               	addwf	_p_i2c1_trb_current,f
  5442                           
  5443                           ;mcc_generated_files/i2c1.c: 572:     if(--i2c1_trb_count == 0)
  5444  0302  3001               	movlw	1
  5445  0303  02F2               	subwf	_i2c1_trb_count,f
  5446  0304  1D03               	btfss	3,2
  5447  0305  2B0B               	goto	i1l165
  5448                           
  5449                           ;mcc_generated_files/i2c1.c: 573:     {;mcc_generated_files/i2c1.c: 574:         i2c1_st
      +                          ate = S_MASTER_SEND_STOP;
  5450  0306  3004               	movlw	4
  5451  0307  00F6               	movwf	??_I2C1_FunctionComplete
  5452  0308  0876               	movf	??_I2C1_FunctionComplete,w
  5453  0309  00F3               	movwf	_i2c1_state
  5454                           
  5455                           ;mcc_generated_files/i2c1.c: 575:     }
  5456  030A  0008               	return
  5457  030B                     i1l165:	
  5458                           ;mcc_generated_files/i2c1.c: 576:     else
  5459                           
  5460                           
  5461                           ;mcc_generated_files/i2c1.c: 577:     {;mcc_generated_files/i2c1.c: 578:         i2c1_st
      +                          ate = S_MASTER_RESTART;
  5462  030B  01F3               	clrf	_i2c1_state
  5463  030C  0AF3               	incf	_i2c1_state,f
  5464  030D  0008               	return
  5465  030E                     __end_of_I2C1_FunctionComplete:	
  5466                           
  5467                           	psect	text14
  5468  0372                     __ptext14:	
  5469 ;; *************** function _I2C1_BusCollisionISR *****************
  5470 ;; Defined at:
  5471 ;;		line 742 in file "mcc_generated_files/i2c1.c"
  5472 ;; Parameters:    Size  Location     Type
  5473 ;;		None
  5474 ;; Auto vars:     Size  Location     Type
  5475 ;;		None
  5476 ;; Return value:  Size  Location     Type
  5477 ;;                  1    wreg      void 
  5478 ;; Registers used:
  5479 ;;		None
  5480 ;; Tracked objects:
  5481 ;;		On entry : 0/0
  5482 ;;		On exit  : 0/0
  5483 ;;		Unchanged: 0/0
  5484 ;; Data sizes:     COMMON   BANK0   BANK1   BANK2   BANK3   BANK4   BANK5   BANK6   BANK7   BANK8   BANK9  BANK10  BANK1
      +1  BANK12  BANK13  BANK14  BANK15  BANK16  BANK17  BANK18  BANK19  BANK20  BANK21  BANK22  BANK23  BANK24  BANK25
  5485 ;;      Params:         0       0       0       0       0       0       0       0       0       0       0       0       
      +0       0       0       0       0       0       0       0       0       0       0       0       0       0       0
  5486 ;;      Locals:         0       0       0       0       0       0       0       0       0       0       0       0       
      +0       0       0       0       0       0       0       0       0       0       0       0       0       0       0
  5487 ;;      Temps:          0       0       0       0       0       0       0       0       0       0       0       0       
      +0       0       0       0       0       0       0       0       0       0       0       0       0       0       0
  5488 ;;      Totals:         0       0       0       0       0       0       0       0       0       0       0       0       
      +0       0       0       0       0       0       0       0       0       0       0       0       0       0       0
  5489 ;;Total ram usage:        0 bytes
  5490 ;; Hardware stack levels used:    1
  5491 ;; This function calls:
  5492 ;;		Nothing
  5493 ;; This function is called by:
  5494 ;;		_INTERRUPT_InterruptManager
  5495 ;; This function uses a non-reentrant model
  5496 ;;
  5497                           
  5498                           
  5499                           ;psect for function _I2C1_BusCollisionISR
  5500  0372                     _I2C1_BusCollisionISR:	
  5501                           
  5502                           ;mcc_generated_files/i2c1.c: 745:  PIR3bits.BCL1IF = 0;
  5503                           
  5504                           ;incstack = 0
  5505                           ; Regs used in _I2C1_BusCollisionISR: []
  5506  0372  014E               	movlb	14	; select bank14
  5507  0373  108F               	bcf	15,1	;volatile
  5508  0374  0008               	return
  5509  0375                     __end_of_I2C1_BusCollisionISR:	
  5510  007E                     btemp	set	126	;btemp
  5511  007E                     int$flags	set	126
  5512  007E                     wtemp0	set	126


Data Sizes:
    Strings     69
    Constant    96
    Data        0
    BSS         66
    Persistent  32
    Stack       0

Auto Spaces:
    Space          Size  Autos    Used
    COMMON           14      6      12
    BANK0            80     15      75
    BANK1            80      7       7
    BANK2            80      0       0
    BANK3            80      0       0
    BANK4            80      0       0
    BANK5            80      0       0
    BANK6            80      0       0
    BANK7            80      0       0
    BANK8            80      0       0
    BANK9            80      0       0
    BANK10           80      0       0
    BANK11           80      0       0
    BANK12           80      0       0
    BANK13           80      0       0
    BANK14           80      0       0
    BANK15           80      0       0
    BANK16           80      0       0
    BANK17           80      0       0
    BANK18           80      0       0
    BANK19           80      0       0
    BANK20           80      0       0
    BANK21           80      0       0
    BANK22           80      0       0
    BANK23           80      0       0
    BANK24           80      0       0
    BANK25           32      0       0

Pointer List with Targets:

    i2c1_tr_queue.ptrb_list.pbuffer	PTR unsigned char  size(1) Largest target is 1
		 -> writeData@data(COMMON[1]), writeData@status(COMMON[1]), main@dataToSend(BANK1[1]), main@status(BANK1[1]), 

    i2c1_tr_queue.pTrFlag	PTR enum E10866 size(1) Largest target is 1
		 -> writeData@data(COMMON[1]), writeData@status(COMMON[1]), main@dataToSend(BANK1[1]), main@status(BANK1[1]), 

    i2c1_tr_queue.ptrb_list	PTR struct . size(1) Largest target is 5
		 -> I2C1_MasterRead@trBlock(BANK0[4]), I2C1_MasterWrite@trBlock(BANK0[4]), 

    S1052_IO_FILE$buffer	PTR unsigned char  size(1) Largest target is 0

    fputc@fp.buffer	PTR unsigned char  size(1) Largest target is 0

    I2C1_MasterWriteTRBBuild@pdata	PTR unsigned char  size(1) Largest target is 1
		 -> writeData@data(COMMON[1]), main@dataToSend(BANK1[1]), 

    I2C1_MasterWriteTRBBuild@ptrb.pbuffer	PTR unsigned char  size(1) Largest target is 1
		 -> writeData@data(COMMON[1]), writeData@status(COMMON[1]), main@dataToSend(BANK1[1]), main@status(BANK1[1]), 

    I2C1_MasterWriteTRBBuild@ptrb	PTR struct . size(1) Largest target is 5
		 -> I2C1_MasterWrite@trBlock(BANK0[4]), 

    I2C1_MasterReadTRBBuild@ptrb.pbuffer	PTR unsigned char  size(1) Largest target is 1
		 -> writeData@data(COMMON[1]), writeData@status(COMMON[1]), main@dataToSend(BANK1[1]), main@status(BANK1[1]), 

    i2c1_object.pTrTail.ptrb_list.pbuffer	PTR unsigned char  size(1) Largest target is 1
		 -> writeData@data(COMMON[1]), writeData@status(COMMON[1]), main@dataToSend(BANK1[1]), main@status(BANK1[1]), 

    i2c1_object.pTrTail.pTrFlag	PTR enum E10866 size(1) Largest target is 1
		 -> writeData@data(COMMON[1]), writeData@status(COMMON[1]), main@dataToSend(BANK1[1]), main@status(BANK1[1]), 

    i2c1_object.pTrTail.ptrb_list	PTR struct . size(1) Largest target is 5
		 -> I2C1_MasterRead@trBlock(BANK0[4]), I2C1_MasterWrite@trBlock(BANK0[4]), 

    I2C1_MasterTRBInsert@ptrb_list	PTR struct . size(1) Largest target is 5
		 -> I2C1_MasterRead@trBlock(BANK0[4]), I2C1_MasterWrite@trBlock(BANK0[4]), 

    I2C1_MasterTRBInsert@pflag	PTR enum E10866 size(1) Largest target is 1
		 -> writeData@status(COMMON[1]), main@status(BANK1[1]), 

    F10977.pbuffer	PTR unsigned char  size(1) Largest target is 1
		 -> writeData@data(COMMON[1]), writeData@status(COMMON[1]), main@dataToSend(BANK1[1]), main@status(BANK1[1]), 

    I2C1_MasterWrite@pflag	PTR enum E10866 size(1) Largest target is 1
		 -> writeData@status(COMMON[1]), main@status(BANK1[1]), 

    I2C1_MasterWrite@pdata	PTR unsigned char  size(1) Largest target is 1
		 -> writeData@data(COMMON[1]), main@dataToSend(BANK1[1]), 

    F10971.pbuffer	PTR unsigned char  size(1) Largest target is 1
		 -> writeData@data(COMMON[1]), writeData@status(COMMON[1]), main@dataToSend(BANK1[1]), main@status(BANK1[1]), 

    I2C1_ISR@pi2c_buf_ptr	PTR unsigned char  size(1) Largest target is 1
		 -> writeData@data(COMMON[1]), writeData@status(COMMON[1]), main@dataToSend(BANK1[1]), main@status(BANK1[1]), 
		 -> NULL(NULL[0]), 

    p_i2c1_trb_current.pbuffer	PTR unsigned char  size(1) Largest target is 1
		 -> writeData@data(COMMON[1]), writeData@status(COMMON[1]), main@dataToSend(BANK1[1]), main@status(BANK1[1]), 

    p_i2c1_trb_current	PTR struct . size(1) Largest target is 5
		 -> I2C1_MasterRead@trBlock(BANK0[4]), I2C1_MasterWrite@trBlock(BANK0[4]), NULL(NULL[0]), 

    i2c1_object.pTrHead.pTrFlag	PTR enum E10866 size(1) Largest target is 1
		 -> writeData@data(COMMON[1]), writeData@status(COMMON[1]), main@dataToSend(BANK1[1]), main@status(BANK1[1]), 

    i2c1_object.pTrHead.ptrb_list	PTR struct . size(1) Largest target is 5
		 -> I2C1_MasterRead@trBlock(BANK0[4]), I2C1_MasterWrite@trBlock(BANK0[4]), 

    S130$pbuffer	PTR unsigned char  size(1) Largest target is 1
		 -> writeData@data(COMMON[1]), writeData@status(COMMON[1]), main@dataToSend(BANK1[1]), main@status(BANK1[1]), 

    p_i2c1_current.pbuffer	PTR unsigned char  size(1) Largest target is 1
		 -> writeData@data(COMMON[1]), writeData@status(COMMON[1]), main@dataToSend(BANK1[1]), main@status(BANK1[1]), 

    S142$pTrFlag	PTR enum E10866 size(1) Largest target is 1
		 -> writeData@data(COMMON[1]), writeData@status(COMMON[1]), main@dataToSend(BANK1[1]), main@status(BANK1[1]), 

    p_i2c1_current.pTrFlag	PTR enum E10866 size(1) Largest target is 1
		 -> writeData@data(COMMON[1]), writeData@status(COMMON[1]), main@dataToSend(BANK1[1]), main@status(BANK1[1]), 

    S142$ptrb_list	PTR struct . size(1) Largest target is 5
		 -> I2C1_MasterRead@trBlock(BANK0[4]), I2C1_MasterWrite@trBlock(BANK0[4]), 

    p_i2c1_current.ptrb_list	PTR struct . size(1) Largest target is 5
		 -> I2C1_MasterRead@trBlock(BANK0[4]), I2C1_MasterWrite@trBlock(BANK0[4]), 

    p_i2c1_current	PTR volatile struct . size(1) Largest target is 5
		 -> i2c1_tr_queue(BANK0[3]), NULL(NULL[0]), 

    S153$pTrHead	PTR struct . size(1) Largest target is 5
		 -> i2c1_tr_queue(BANK0[3]), 

    i2c1_object.pTrHead	PTR struct . size(1) Largest target is 5
		 -> i2c1_tr_queue(BANK0[3]), 

    S153$pTrTail	PTR struct . size(1) Largest target is 5
		 -> i2c1_tr_queue(BANK0[3]), 

    i2c1_object.pTrTail	PTR struct . size(1) Largest target is 5
		 -> i2c1_tr_queue(BANK0[3]), 


Critical Paths under _main in COMMON

    None.

Critical Paths under _INTERRUPT_InterruptManager in COMMON

    _INTERRUPT_InterruptManager->_I2C1_ISR
    _I2C1_ISR->_I2C1_Stop

Critical Paths under _main in BANK0

    _main->_I2C1_MasterWrite
    _SYSTEM_Initialize->_I2C1_Initialize
    _I2C1_MasterWrite->_I2C1_MasterWriteTRBBuild

Critical Paths under _INTERRUPT_InterruptManager in BANK0

    None.

Critical Paths under _main in BANK1

    None.

Critical Paths under _INTERRUPT_InterruptManager in BANK1

    None.

Critical Paths under _main in BANK2

    None.

Critical Paths under _INTERRUPT_InterruptManager in BANK2

    None.

Critical Paths under _main in BANK3

    None.

Critical Paths under _INTERRUPT_InterruptManager in BANK3

    None.

Critical Paths under _main in BANK4

    None.

Critical Paths under _INTERRUPT_InterruptManager in BANK4

    None.

Critical Paths under _main in BANK5

    None.

Critical Paths under _INTERRUPT_InterruptManager in BANK5

    None.

Critical Paths under _main in BANK6

    None.

Critical Paths under _INTERRUPT_InterruptManager in BANK6

    None.

Critical Paths under _main in BANK7

    None.

Critical Paths under _INTERRUPT_InterruptManager in BANK7

    None.

Critical Paths under _main in BANK8

    None.

Critical Paths under _INTERRUPT_InterruptManager in BANK8

    None.

Critical Paths under _main in BANK9

    None.

Critical Paths under _INTERRUPT_InterruptManager in BANK9

    None.

Critical Paths under _main in BANK10

    None.

Critical Paths under _INTERRUPT_InterruptManager in BANK10

    None.

Critical Paths under _main in BANK11

    None.

Critical Paths under _INTERRUPT_InterruptManager in BANK11

    None.

Critical Paths under _main in BANK12

    None.

Critical Paths under _INTERRUPT_InterruptManager in BANK12

    None.

Critical Paths under _main in BANK13

    None.

Critical Paths under _INTERRUPT_InterruptManager in BANK13

    None.

Critical Paths under _main in BANK14

    None.

Critical Paths under _INTERRUPT_InterruptManager in BANK14

    None.

Critical Paths under _main in BANK15

    None.

Critical Paths under _INTERRUPT_InterruptManager in BANK15

    None.

Critical Paths under _main in BANK16

    None.

Critical Paths under _INTERRUPT_InterruptManager in BANK16

    None.

Critical Paths under _main in BANK17

    None.

Critical Paths under _INTERRUPT_InterruptManager in BANK17

    None.

Critical Paths under _main in BANK18

    None.

Critical Paths under _INTERRUPT_InterruptManager in BANK18

    None.

Critical Paths under _main in BANK19

    None.

Critical Paths under _INTERRUPT_InterruptManager in BANK19

    None.

Critical Paths under _main in BANK20

    None.

Critical Paths under _INTERRUPT_InterruptManager in BANK20

    None.

Critical Paths under _main in BANK21

    None.

Critical Paths under _INTERRUPT_InterruptManager in BANK21

    None.

Critical Paths under _main in BANK22

    None.

Critical Paths under _INTERRUPT_InterruptManager in BANK22

    None.

Critical Paths under _main in BANK23

    None.

Critical Paths under _INTERRUPT_InterruptManager in BANK23

    None.

Critical Paths under _main in BANK24

    None.

Critical Paths under _INTERRUPT_InterruptManager in BANK24

    None.

Critical Paths under _main in BANK25

    None.

Critical Paths under _INTERRUPT_InterruptManager in BANK25

    None.

Call Graph Tables:

 ---------------------------------------------------------------------------------
 (Depth) Function   	        Calls       Base Space   Used Autos Params    Refs
 ---------------------------------------------------------------------------------
 (0) _main                                                 8     8      0    2196
                                             14 BANK0      1     1      0
                                              0 BANK1      7     7      0
                   _I2C1_MasterWrite
                  _SYSTEM_Initialize
 ---------------------------------------------------------------------------------
 (1) _SYSTEM_Initialize                                    0     0      0       0
                    _I2C1_Initialize
              _OSCILLATOR_Initialize
             _PIN_MANAGER_Initialize
                     _PMD_Initialize
 ---------------------------------------------------------------------------------
 (2) _PMD_Initialize                                       0     0      0       0
 ---------------------------------------------------------------------------------
 (2) _PIN_MANAGER_Initialize                               0     0      0       0
 ---------------------------------------------------------------------------------
 (2) _OSCILLATOR_Initialize                                0     0      0       0
 ---------------------------------------------------------------------------------
 (2) _I2C1_Initialize                                      1     1      0       0
                                              0 BANK0      1     1      0
 ---------------------------------------------------------------------------------
 (1) _I2C1_MasterWrite                                     7     3      4    1805
                                              7 BANK0      7     3      4
               _I2C1_MasterTRBInsert
           _I2C1_MasterWriteTRBBuild
 ---------------------------------------------------------------------------------
 (2) _I2C1_MasterWriteTRBBuild                             7     3      4     492
                                              0 BANK0      7     3      4
 ---------------------------------------------------------------------------------
 (2) _I2C1_MasterTRBInsert                                 4     2      2     546
                                              0 BANK0      4     2      2
   _I2C1_WaitForLastPacketToComplete
 ---------------------------------------------------------------------------------
 (3) _I2C1_WaitForLastPacketToComplete                     0     0      0       0
 ---------------------------------------------------------------------------------
 Estimated maximum stack depth 3
 ---------------------------------------------------------------------------------
 (Depth) Function   	        Calls       Base Space   Used Autos Params    Refs
 ---------------------------------------------------------------------------------
 (4) _INTERRUPT_InterruptManager                           0     0      0      31
               _I2C1_BusCollisionISR
                           _I2C1_ISR
 ---------------------------------------------------------------------------------
 (5) _I2C1_ISR                                             4     4      0      31
                                              2 COMMON     4     4      0
              _I2C1_FunctionComplete
                          _I2C1_Stop
 ---------------------------------------------------------------------------------
 (6) _I2C1_Stop                                            2     2      0      31
                                              0 COMMON     2     2      0
 ---------------------------------------------------------------------------------
 (6) _I2C1_FunctionComplete                                1     1      0       0
                                              0 COMMON     1     1      0
 ---------------------------------------------------------------------------------
 (5) _I2C1_BusCollisionISR                                 0     0      0       0
 ---------------------------------------------------------------------------------
 Estimated maximum stack depth 6
 ---------------------------------------------------------------------------------

 Call Graph Graphs:

 _main (ROOT)
   _I2C1_MasterWrite
     _I2C1_MasterTRBInsert
       _I2C1_WaitForLastPacketToComplete
     _I2C1_MasterWriteTRBBuild
   _SYSTEM_Initialize
     _I2C1_Initialize
     _OSCILLATOR_Initialize
     _PIN_MANAGER_Initialize
     _PMD_Initialize

 _INTERRUPT_InterruptManager (ROOT)
   _I2C1_BusCollisionISR
   _I2C1_ISR
     _I2C1_FunctionComplete
     _I2C1_Stop

 Address spaces:
Name               Size   Autos  Total    Cost      Usage
BIGRAM             7F0      0       0       0        0.0%
EEDATA             100      0       0       0        0.0%
NULL                 0      0       0       0        0.0%
CODE                 0      0       0       0        0.0%
BITCOMMON            E      0       0       1        0.0%
BITSFR0              0      0       0       1        0.0%
SFR0                 0      0       0       1        0.0%
COMMON               E      6       C       2       85.7%
BITSFR1              0      0       0       2        0.0%
SFR1                 0      0       0       2        0.0%
BITSFR2              0      0       0       3        0.0%
SFR2                 0      0       0       3        0.0%
STACK                0      0       0       3        0.0%
BITBANK0            50      0       0       4        0.0%
BITSFR3              0      0       0       4        0.0%
SFR3                 0      0       0       4        0.0%
BANK0               50      F      4B       5       93.8%
BITSFR4              0      0       0       5        0.0%
SFR4                 0      0       0       5        0.0%
BITSFR5              0      0       0       6        0.0%
SFR5                 0      0       0       6        0.0%
ABS                  0      0      5E       6        0.0%
BITBANK1            50      0       0       7        0.0%
BITSFR6              0      0       0       7        0.0%
SFR6                 0      0       0       7        0.0%
BANK1               50      7       7       8        8.8%
BITSFR7              0      0       0       8        0.0%
SFR7                 0      0       0       8        0.0%
BITBANK2            50      0       0       9        0.0%
BITSFR8              0      0       0       9        0.0%
SFR8                 0      0       0       9        0.0%
BANK2               50      0       0      10        0.0%
BITSFR9              0      0       0      10        0.0%
SFR9                 0      0       0      10        0.0%
BITBANK3            50      0       0      11        0.0%
BITSFR10             0      0       0      11        0.0%
SFR10                0      0       0      11        0.0%
BANK3               50      0       0      12        0.0%
BITSFR11             0      0       0      12        0.0%
SFR11                0      0       0      12        0.0%
BITBANK4            50      0       0      13        0.0%
BITSFR12             0      0       0      13        0.0%
SFR12                0      0       0      13        0.0%
BANK4               50      0       0      14        0.0%
BITSFR13             0      0       0      14        0.0%
SFR13                0      0       0      14        0.0%
BITBANK5            50      0       0      15        0.0%
BITSFR14             0      0       0      15        0.0%
SFR14                0      0       0      15        0.0%
BANK5               50      0       0      16        0.0%
BITSFR15             0      0       0      16        0.0%
SFR15                0      0       0      16        0.0%
BITBANK6            50      0       0      17        0.0%
BITSFR16             0      0       0      17        0.0%
SFR16                0      0       0      17        0.0%
BANK6               50      0       0      18        0.0%
BITSFR17             0      0       0      18        0.0%
SFR17                0      0       0      18        0.0%
BITBANK7            50      0       0      19        0.0%
BITSFR18             0      0       0      19        0.0%
SFR18                0      0       0      19        0.0%
BANK7               50      0       0      20        0.0%
BITSFR19             0      0       0      20        0.0%
SFR19                0      0       0      20        0.0%
BITBANK8            50      0       0      21        0.0%
BITSFR20             0      0       0      21        0.0%
SFR20                0      0       0      21        0.0%
BANK8               50      0       0      22        0.0%
BITSFR21             0      0       0      22        0.0%
SFR21                0      0       0      22        0.0%
BITBANK9            50      0       0      23        0.0%
BITSFR22             0      0       0      23        0.0%
SFR22                0      0       0      23        0.0%
BANK9               50      0       0      24        0.0%
BITSFR23             0      0       0      24        0.0%
SFR23                0      0       0      24        0.0%
BITBANK10           50      0       0      25        0.0%
BITSFR24             0      0       0      25        0.0%
SFR24                0      0       0      25        0.0%
BANK10              50      0       0      26        0.0%
BITSFR25             0      0       0      26        0.0%
SFR25                0      0       0      26        0.0%
BITBANK11           50      0       0      27        0.0%
BITSFR26             0      0       0      27        0.0%
SFR26                0      0       0      27        0.0%
BANK11              50      0       0      28        0.0%
BITSFR27             0      0       0      28        0.0%
SFR27                0      0       0      28        0.0%
BITBANK12           50      0       0      29        0.0%
BITSFR28             0      0       0      29        0.0%
SFR28                0      0       0      29        0.0%
BANK12              50      0       0      30        0.0%
BITSFR29             0      0       0      30        0.0%
SFR29                0      0       0      30        0.0%
BITBANK13           50      0       0      31        0.0%
BITSFR30             0      0       0      31        0.0%
SFR30                0      0       0      31        0.0%
BANK13              50      0       0      32        0.0%
BITSFR31             0      0       0      32        0.0%
SFR31                0      0       0      32        0.0%
BITBANK14           50      0       0      33        0.0%
BITSFR32             0      0       0      33        0.0%
SFR32                0      0       0      33        0.0%
BANK14              50      0       0      34        0.0%
BITSFR33             0      0       0      34        0.0%
SFR33                0      0       0      34        0.0%
BITBANK15           50      0       0      35        0.0%
BITSFR34             0      0       0      35        0.0%
SFR34                0      0       0      35        0.0%
BANK15              50      0       0      36        0.0%
BITSFR35             0      0       0      36        0.0%
SFR35                0      0       0      36        0.0%
BITBANK16           50      0       0      37        0.0%
BITSFR36             0      0       0      37        0.0%
SFR36                0      0       0      37        0.0%
BANK16              50      0       0      38        0.0%
BITSFR37             0      0       0      38        0.0%
SFR37                0      0       0      38        0.0%
BITBANK17           50      0       0      39        0.0%
BITSFR38             0      0       0      39        0.0%
SFR38                0      0       0      39        0.0%
BANK17              50      0       0      40        0.0%
BITSFR39             0      0       0      40        0.0%
SFR39                0      0       0      40        0.0%
BITBANK18           50      0       0      41        0.0%
BITSFR40             0      0       0      41        0.0%
SFR40                0      0       0      41        0.0%
BANK18              50      0       0      42        0.0%
BITSFR41             0      0       0      42        0.0%
SFR41                0      0       0      42        0.0%
BITBANK19           50      0       0      43        0.0%
BITSFR42             0      0       0      43        0.0%
SFR42                0      0       0      43        0.0%
BANK19              50      0       0      44        0.0%
BITSFR43             0      0       0      44        0.0%
SFR43                0      0       0      44        0.0%
BITBANK20           50      0       0      45        0.0%
BITSFR44             0      0       0      45        0.0%
SFR44                0      0       0      45        0.0%
BANK20              50      0       0      46        0.0%
BITSFR45             0      0       0      46        0.0%
SFR45                0      0       0      46        0.0%
BITBANK21           50      0       0      47        0.0%
BITSFR46             0      0       0      47        0.0%
SFR46                0      0       0      47        0.0%
BANK21              50      0       0      48        0.0%
BITSFR47             0      0       0      48        0.0%
SFR47                0      0       0      48        0.0%
BITBANK22           50      0       0      49        0.0%
BITSFR48             0      0       0      49        0.0%
SFR48                0      0       0      49        0.0%
BANK22              50      0       0      50        0.0%
BITSFR49             0      0       0      50        0.0%
SFR49                0      0       0      50        0.0%
BITBANK23           50      0       0      51        0.0%
BITSFR50             0      0       0      51        0.0%
SFR50                0      0       0      51        0.0%
BANK23              50      0       0      52        0.0%
BITSFR51             0      0       0      52        0.0%
SFR51                0      0       0      52        0.0%
BITBANK24           50      0       0      53        0.0%
BITSFR52             0      0       0      53        0.0%
SFR52                0      0       0      53        0.0%
BANK24              50      0       0      54        0.0%
BITSFR53             0      0       0      54        0.0%
SFR53                0      0       0      54        0.0%
BITBANK25           20      0       0      55        0.0%
BITSFR54             0      0       0      55        0.0%
SFR54                0      0       0      55        0.0%
BANK25              20      0       0      56        0.0%
BITSFR55             0      0       0      56        0.0%
SFR55                0      0       0      56        0.0%
BITSFR56             0      0       0      57        0.0%
SFR56                0      0       0      57        0.0%
DATA                 0      0      5E      57        0.0%
BITSFR57             0      0       0      58        0.0%
SFR57                0      0       0      58        0.0%
BITSFR58             0      0       0      59        0.0%
SFR58                0      0       0      59        0.0%
BITSFR59             0      0       0      60        0.0%
SFR59                0      0       0      60        0.0%
BITSFR60             0      0       0      61        0.0%
SFR60                0      0       0      61        0.0%
BITSFR61             0      0       0      62        0.0%
SFR61                0      0       0      62        0.0%
BITSFR62             0      0       0      63        0.0%
SFR62                0      0       0      63        0.0%
BITSFR63             0      0       0      64        0.0%
SFR63                0      0       0      64        0.0%


Microchip Technology PIC Macro Assembler V2.05 build -831301201 
Symbol Table                                                                                   Sat Apr 13 12:03:25 2019

                              __CFG_CP$OFF 0000                                __CFG_LVP$ON 0000  
                  __size_of_PMD_Initialize 000A                               __CFG_BORV$LO 0000  
                                      wreg 0009                              __CFG_BBEN$OFF 0000  
                         __end_of_I2C1_ISR 0168                                       l2121 01F4  
                                     l2115 01DA                                       l2135 0206  
                                     l2085 02A8                                       l1831 036E  
                                     l1921 024D                                       l1923 0252  
                                     l1917 0246                                       STR_1 0369  
                                     STR_3 0356                                       STR_4 0347  
                                     STR_5 032D                                       STR_6 01C8  
                                     STR_7 0324                                       STR_8 033F  
                                     STR_9 034F                                       u1115 0215  
                                     _LATA 0018                                       _LATB 0019  
                                     _LATC 001A                                       _PMD0 0796  
                                     i1l21 0015                                       _PMD1 0797  
                                     _PMD2 0798                                       _PMD3 0799  
                                     i1l16 0010                                       _PMD4 079A  
                                     _PMD5 079B                                       _PMD6 079C  
                                     _PMD7 079D                                       _WPUA 1F39  
                                     _WPUB 1F44                                       _WPUC 1F4F  
                            __CFG_FCMEN$ON 0000                                       _dbuf 0031  
                                     _main 01D2                                       _prec 0029  
                                     _nout 0025                                       fsr0h 0005  
                                     fsr1h 0007                                       indf0 0000  
                                     fsr0l 0004                                       indf1 0001  
                                     fsr1l 0006                     ??_I2C1_MasterTRBInsert 005E  
                                     btemp 007E                              __CFG_BOREN$ON 0000  
                                     start 0017                              __CFG_CSWEN$ON 0000  
                            __CFG_MCLRE$ON 0000             I2C1_MasterWriteTRBBuild@length 005D  
                               _i2c1_state 0073             __size_of_OSCILLATOR_Initialize 0009  
                I2C1_MasterTRBInsert@count 005F              __end_of_OSCILLATOR_Initialize 033F  
                I2C1_MasterTRBInsert@pflag 005D                                      ?_main 0076  
                        __end_of_I2C1_Stop 02FE                                      STR_10 035D  
                            __CFG_WDTE$OFF 0000                                      i1l130 0068  
                                    i1l124 003C                                      i1l150 00E9  
                                    i1l135 0087                                      i1l136 0092  
                                    i1l153 00F8                                      i1l129 0067  
                                    i1l154 0105                                      i1l146 00CA  
                                    i1l165 030B                                      i1l158 0128  
                                    _OSCEN 0891                                      _TRISA 0012  
                                    _TRISB 0013                                      _TRISC 0014  
             __end_of_I2C1_BusCollisionISR 0375                          ??_I2C1_Initialize 005C  
                            __CFG_WRTB$OFF 0000                              __CFG_WRTC$OFF 0000  
                            __CFG_WRTD$OFF 0000                                      _flags 002B  
                                    _width 0027                                      main@i 00A4  
                                    status 0003                                      wtemp0 007E  
          I2C1_MasterWriteTRBBuild@address 005E                            __initialization 0019  
                    I2C1_MasterWrite@pdata 0069                      I2C1_MasterWrite@pflag 0066  
                             __end_of_main 0219                             __CFG_SAFEN$OFF 0000  
              ?_INTERRUPT_InterruptManager 0076                                _i2c1_object 0020  
                                   ??_main 006A                                     _ANSELA 1F38  
                                   _ANSELB 1F43                                     _ANSELC 1F4E  
                       __CFG_RSTOSC$HFINT1 0000                                     _RA4PPS 1F14  
                                   _RA5PPS 1F15                                     i1l2005 00C0  
                                   i1l2043 0111                                     i1l2027 00EC  
                                   i1l2019 00D7                                     i1l2055 012C  
                                   i1l2039 010B                                     i1l2057 012F  
                                   i1l2065 013C                                     _ODCONA 1F3A  
                                   _ODCONB 1F45                                     i1l2059 0133  
                                   _ODCONC 1F50                                     i1l2175 0144  
                                   i1l1953 005B                                     i1l1971 0082  
                                   i1l1965 0073                                     i1l1957 0062  
                                   i1l1985 00AB                             __CFG_WDTCCS$SC 0000  
                                   i1l1899 02FC                                     _OSCFRQ 0893  
                        ?_I2C1_MasterWrite 0063                             __CFG_PWRTS$OFF 0000  
                       ??_I2C1_MasterWrite 0067                             _p_i2c1_current 0070  
                           __CFG_STVREN$ON 0000                 ??_I2C1_MasterWriteTRBBuild 0060  
                                ?_I2C1_ISR 0076                             _PMD_Initialize 031A  
            I2C1_MasterWriteTRBBuild@pdata 005C                          _SYSTEM_Initialize 030E  
                  __end_of__initialization 0026                         ?_SYSTEM_Initialize 0076  
                           _i2c1_trb_count 0072                      _I2C1_FunctionComplete 02FE  
                     _I2C1_BusCollisionISR 0372                             __pcstackCOMMON 0076  
                   I2C1_MasterWrite@length 0063                        ??_SYSTEM_Initialize 005D  
                           main@dataToSend 00A3                                 ??_I2C1_ISR 0078  
                   __end_of_PMD_Initialize 0324                  __end_of_SYSTEM_Initialize 031A  
                               __pbssBANK0 0020                      ?_I2C1_BusCollisionISR 0076  
                               __pmaintext 01D2                            __CFG_PPS1WAY$ON 0000  
                               __pintentry 0004                            _I2C1_Initialize 02CE  
                          __CFG_ZCDDIS$OFF 0000                            ?_PMD_Initialize 0076  
                                  _OSCCON1 088D                                    _OSCCON3 088F  
                                _I2C1_Stop 02E7                                    _OSCTUNE 0892  
                                  _SSP1ADD 018D                                    _SLRCONA 1F3B  
                                  _SLRCONB 1F46                                    _SLRCONC 1F51  
                                  _SSP1BUF 018C                          __end_of_charTable 01C8  
            I2C1_MasterTRBInsert@ptrb_list 005C                     ?_I2C1_FunctionComplete 0076  
            __size_of_I2C1_MasterTRBInsert 0045                         _p_i2c1_trb_current 0071  
                                  __ptext1 030E                                    __ptext2 031A  
                                  __ptext3 025E                                    __ptext4 0336  
                                  __ptext5 02CE                                    __ptext6 0287  
                                  __ptext7 02AE                                    __ptext8 0219  
                                  __ptext9 036E                            __CFG_WRTAPP$OFF 0000  
                    _OSCILLATOR_Initialize 0336                   ??_PIN_MANAGER_Initialize 005C  
                          __CFG_WRTSAF$OFF 0000                                 ?_I2C1_Stop 0076  
               __size_of_SYSTEM_Initialize 000C                       I2C1_ISR@pi2c_buf_ptr 0030  
                                  clrloop0 0364                       end_of_initialization 0026  
                   ??_I2C1_BusCollisionISR 0076                    __end_of_I2C1_Initialize 02E7  
                         main@foundAddress 00A2                      __CFG_WDTCPS$WDTCPS_31 0000  
                __size_of_I2C1_MasterWrite 0027                          __size_of_I2C1_ISR 013E  
                         __CFG_FEXTOSC$OFF 0000          I2C1_ISR@i2c_10bit_address_restart 002E  
                  I2C1_MasterWrite@address 0064                                 main@status 00A6  
                  I2C1_MasterWrite@trBlock 0055                   I2C1_Stop@completion_code 0077  
                   ?_OSCILLATOR_Initialize 0076                        start_initialization 0019  
                              ??_I2C1_Stop 0076            __size_of_PIN_MANAGER_Initialize 0029  
        __size_of_I2C1_MasterWriteTRBBuild 0020                  ?_I2C1_MasterWriteTRBBuild 005C  
                         ?_I2C1_Initialize 0076                           __CFG_LPBOREN$OFF 0000  
                         ??_PMD_Initialize 005C               I2C1_MasterWriteTRBBuild@ptrb 0062  
                              __pbssCOMMON 0070                                  ___latbits 0003  
                            __pcstackBANK0 005C                              __pcstackBANK1 00A0  
                            _i2c1_tr_queue 0059                    ??_I2C1_FunctionComplete 0076  
                                _charTable 0168                     _PIN_MANAGER_Initialize 025E  
                                 _I2C1_ISR 002A               ??_INTERRUPT_InterruptManager 007C  
                         _I2C1_MasterWrite 0287               __end_of_I2C1_MasterTRBInsert 025E  
 __end_of_I2C1_WaitForLastPacketToComplete 0372  __size_of_I2C1_WaitForLastPacketToComplete 0004  
       ??_I2C1_WaitForLastPacketToComplete 005C          ?_I2C1_WaitForLastPacketToComplete 0076  
         _I2C1_WaitForLastPacketToComplete 036E                     I2C1_MasterRead@trBlock 0051  
                                clear_ram0 0363                                   _PIE3bits 0719  
      __size_of_INTERRUPT_InterruptManager 0013                                   _PIR3bits 070F  
                        __CFG_BBSIZE$BB512 0000                                   _SSP1CON1 0190  
                                 _SSP1CON3 0192                                   _SSP1STAT 018F  
                                main@dummy 00A0              __size_of_I2C1_BusCollisionISR 0003  
                   I2C1_ISR@i2c_bytes_left 002F                    ??_OSCILLATOR_Initialize 005C  
         __end_of_I2C1_MasterWriteTRBBuild 02CE                        I2C1_ISR@i2c_address 0074  
                                 __ptext11 002A                                   __ptext12 02E7  
                                 __ptext13 02FE                                   __ptext14 0372  
                             _SSP1CON1bits 0190                               _SSP1CON2bits 0191  
                            __size_of_main 0047                       __CFG_WDTCWS$WDTCWS_7 0000  
                     _I2C1_MasterTRBInsert 0219                                   int$flags 007E  
                                 _position 002D         __end_of_INTERRUPT_InterruptManager 0017  
               _INTERRUPT_InterruptManager 0004                                 _INTCONbits 000B  
                           __pstringtext10 0000                                   intlevel1 0000  
                  ?_PIN_MANAGER_Initialize 0076                   __end_of_I2C1_MasterWrite 02AE  
                        __CFG_CLKOUTEN$OFF 0000             __size_of_I2C1_FunctionComplete 0010  
            __end_of_I2C1_FunctionComplete 030E                      ?_I2C1_MasterTRBInsert 005C  
                 __size_of_I2C1_Initialize 0019                              __pstringtext1 0168  
                            __pstringtext2 0324                              __pstringtext3 032D  
                            __pstringtext4 033F                              __pstringtext5 0347  
                            __pstringtext6 034F                              __pstringtext7 0356  
                            __pstringtext8 035D                              __pstringtext9 0369  
                               _SSP1DATPPS 1EC6                                 _SSP1CLKPPS 1EC5  
                 _I2C1_MasterWriteTRBBuild 02AE             __end_of_PIN_MANAGER_Initialize 0287  
                       __size_of_I2C1_Stop 0017  
